; ModuleID = '/home/steve/Graduate_Research/MLP/src/mlp.cpp'
source_filename = "/home/steve/Graduate_Research/MLP/src/mlp.cpp"
target datalayout = "e-m:e-p:32:32-i64:64-v128:64:128-a:0:32-n32-S64"
target triple = "armv7--linux-gnueabihf"

%"class.std::ios_base::Init" = type { i8 }

$_Z19read_image_from_ddrPhS_i = comdat any

$_Z13read_from_ddrPaS_i = comdat any

$_Z14output_resultsPhS_ = comdat any

@_ZStL8__ioinit = internal global %"class.std::ios_base::Init" zeroinitializer, align 1
@__dso_handle = external global i8
@llvm.global_ctors = appending global [1 x { i32, void ()*, i8* }] [{ i32, void ()*, i8* } { i32 65535, void ()* @_GLOBAL__sub_I_mlp.cpp, i8* null }]

define internal void @__cxx_global_var_init() #0 section ".text.startup" !dbg !980 {
  %1 = call %"class.std::ios_base::Init"* @_ZNSt8ios_base4InitC1Ev(%"class.std::ios_base::Init"* @_ZStL8__ioinit), !dbg !981
  %2 = call i32 @__cxa_atexit(void (i8*)* bitcast (%"class.std::ios_base::Init"* (%"class.std::ios_base::Init"*)* @_ZNSt8ios_base4InitD1Ev to void (i8*)*), i8* getelementptr inbounds (%"class.std::ios_base::Init", %"class.std::ios_base::Init"* @_ZStL8__ioinit, i32 0, i32 0), i8* @__dso_handle) #3, !dbg !982
  ret void, !dbg !981
}

declare !xidane.fname !984 !xidane.function_declaration_type !985 !xidane.function_declaration_filename !986 %"class.std::ios_base::Init"* @_ZNSt8ios_base4InitC1Ev(%"class.std::ios_base::Init"* returned) unnamed_addr #1

; Function Attrs: nounwind
declare !xidane.fname !987 !xidane.function_declaration_type !985 !xidane.function_declaration_filename !986 %"class.std::ios_base::Init"* @_ZNSt8ios_base4InitD1Ev(%"class.std::ios_base::Init"* returned) unnamed_addr #2

; Function Attrs: nounwind
declare i32 @__cxa_atexit(void (i8*)*, i8*, i8*) #3

; Function Attrs: nounwind
define void @_Z14fullyConnectedPhPaS0_S_ii(i8*, i8*, i8*, i8*, i32, i32) #4 !dbg !988 !xidane.fname !998 !xidane.function_declaration_type !999 !xidane.function_declaration_filename !1000 {
  %7 = alloca i8*, align 4
  %8 = alloca i8*, align 4
  %9 = alloca i8*, align 4
  %10 = alloca i8*, align 4
  %11 = alloca i32, align 4
  %12 = alloca i32, align 4
  %13 = alloca i32, align 4
  %14 = alloca i32, align 4
  %15 = alloca i32, align 4
  %16 = alloca i32, align 4
  %17 = alloca i32, align 4
  store i8* %0, i8** %7, align 4
  call void @llvm.dbg.declare(metadata i8** %7, metadata !1001, metadata !1002), !dbg !1003
  store i8* %1, i8** %8, align 4
  call void @llvm.dbg.declare(metadata i8** %8, metadata !1004, metadata !1002), !dbg !1005
  store i8* %2, i8** %9, align 4
  call void @llvm.dbg.declare(metadata i8** %9, metadata !1006, metadata !1002), !dbg !1007
  store i8* %3, i8** %10, align 4
  call void @llvm.dbg.declare(metadata i8** %10, metadata !1008, metadata !1002), !dbg !1009
  store i32 %4, i32* %11, align 4
  call void @llvm.dbg.declare(metadata i32* %11, metadata !1010, metadata !1002), !dbg !1011
  store i32 %5, i32* %12, align 4
  call void @llvm.dbg.declare(metadata i32* %12, metadata !1012, metadata !1002), !dbg !1013
  call void @llvm.dbg.declare(metadata i32* %13, metadata !1014, metadata !1002), !dbg !1015
  store i32 0, i32* %13, align 4, !dbg !1015
  call void @llvm.dbg.declare(metadata i32* %14, metadata !1016, metadata !1002), !dbg !1017
  store i32 0, i32* %14, align 4, !dbg !1017
  call void @llvm.dbg.declare(metadata i32* %15, metadata !1018, metadata !1002), !dbg !1019
  store i32 0, i32* %15, align 4, !dbg !1019
  call void @llvm.dbg.declare(metadata i32* %16, metadata !1020, metadata !1002), !dbg !1022
  store i32 0, i32* %16, align 4, !dbg !1022
  br label %18, !dbg !1023

; <label>:18:                                     ; preds = %83, %6
  %19 = load i32, i32* %16, align 4, !dbg !1024
  %20 = load i32, i32* %11, align 4, !dbg !1027
  %21 = icmp slt i32 %19, %20, !dbg !1028
  br i1 %21, label %22, label %86, !dbg !1029

; <label>:22:                                     ; preds = %18
  store i32 0, i32* %13, align 4, !dbg !1030
  call void @llvm.dbg.declare(metadata i32* %17, metadata !1032, metadata !1002), !dbg !1034
  store i32 0, i32* %17, align 4, !dbg !1034
  br label %23, !dbg !1035

; <label>:23:                                     ; preds = %59, %22
  %24 = load i32, i32* %17, align 4, !dbg !1036
  %25 = load i32, i32* %12, align 4, !dbg !1039
  %26 = icmp slt i32 %24, %25, !dbg !1040
  br i1 %26, label %27, label %62, !dbg !1041

; <label>:27:                                     ; preds = %23
  %28 = load i32, i32* %17, align 4, !dbg !1042
  %29 = load i8*, i8** %7, align 4, !dbg !1044
  %30 = getelementptr inbounds i8, i8* %29, i32 %28, !dbg !1044
  %31 = load i8, i8* %30, align 1, !dbg !1044
  %32 = zext i8 %31 to i32, !dbg !1044
  store i32 %32, i32* %14, align 4, !dbg !1045
  %33 = load i32, i32* %16, align 4, !dbg !1046
  %34 = load i32, i32* %12, align 4, !dbg !1047
  %35 = mul nsw i32 %33, %34, !dbg !1048
  %36 = load i32, i32* %17, align 4, !dbg !1049
  %37 = add nsw i32 %35, %36, !dbg !1050
  %38 = load i8*, i8** %8, align 4, !dbg !1051
  %39 = getelementptr inbounds i8, i8* %38, i32 %37, !dbg !1051
  %40 = load i8, i8* %39, align 1, !dbg !1051
  %41 = sext i8 %40 to i32, !dbg !1051
  store i32 %41, i32* %15, align 4, !dbg !1052
  %42 = load i32, i32* %17, align 4, !dbg !1053
  %43 = load i8*, i8** %7, align 4, !dbg !1054
  %44 = getelementptr inbounds i8, i8* %43, i32 %42, !dbg !1054
  %45 = load i8, i8* %44, align 1, !dbg !1054
  %46 = zext i8 %45 to i32, !dbg !1054
  %47 = load i32, i32* %16, align 4, !dbg !1055
  %48 = load i32, i32* %12, align 4, !dbg !1056
  %49 = mul nsw i32 %47, %48, !dbg !1057
  %50 = load i32, i32* %17, align 4, !dbg !1058
  %51 = add nsw i32 %49, %50, !dbg !1059
  %52 = load i8*, i8** %8, align 4, !dbg !1060
  %53 = getelementptr inbounds i8, i8* %52, i32 %51, !dbg !1060
  %54 = load i8, i8* %53, align 1, !dbg !1060
  %55 = sext i8 %54 to i32, !dbg !1060
  %56 = mul nsw i32 %46, %55, !dbg !1061
  %57 = load i32, i32* %13, align 4, !dbg !1062
  %58 = add nsw i32 %57, %56, !dbg !1062
  store i32 %58, i32* %13, align 4, !dbg !1062
  br label %59, !dbg !1063

; <label>:59:                                     ; preds = %27
  %60 = load i32, i32* %17, align 4, !dbg !1064
  %61 = add nsw i32 %60, 1, !dbg !1064
  store i32 %61, i32* %17, align 4, !dbg !1064
  br label %23, !dbg !1066, !llvm.loop !1067

; <label>:62:                                     ; preds = %23
  %63 = load i32, i32* %16, align 4, !dbg !1069
  %64 = load i8*, i8** %9, align 4, !dbg !1070
  %65 = getelementptr inbounds i8, i8* %64, i32 %63, !dbg !1070
  %66 = load i8, i8* %65, align 1, !dbg !1070
  %67 = sext i8 %66 to i32, !dbg !1070
  %68 = load i32, i32* %13, align 4, !dbg !1071
  %69 = add nsw i32 %68, %67, !dbg !1071
  store i32 %69, i32* %13, align 4, !dbg !1071
  %70 = load i32, i32* %13, align 4, !dbg !1072
  %71 = icmp slt i32 %70, 0, !dbg !1074
  br i1 %71, label %72, label %73, !dbg !1075

; <label>:72:                                     ; preds = %62
  store i32 0, i32* %13, align 4, !dbg !1076
  br label %73, !dbg !1078

; <label>:73:                                     ; preds = %72, %62
  %74 = load i32, i32* %13, align 4, !dbg !1079
  %75 = icmp sgt i32 %74, 16, !dbg !1081
  br i1 %75, label %76, label %77, !dbg !1082

; <label>:76:                                     ; preds = %73
  store i32 16, i32* %13, align 4, !dbg !1083
  br label %77, !dbg !1085

; <label>:77:                                     ; preds = %76, %73
  %78 = load i32, i32* %13, align 4, !dbg !1086
  %79 = trunc i32 %78 to i8, !dbg !1086
  %80 = load i32, i32* %16, align 4, !dbg !1087
  %81 = load i8*, i8** %10, align 4, !dbg !1088
  %82 = getelementptr inbounds i8, i8* %81, i32 %80, !dbg !1088
  store i8 %79, i8* %82, align 1, !dbg !1089
  br label %83, !dbg !1090

; <label>:83:                                     ; preds = %77
  %84 = load i32, i32* %16, align 4, !dbg !1091
  %85 = add nsw i32 %84, 1, !dbg !1091
  store i32 %85, i32* %16, align 4, !dbg !1091
  br label %18, !dbg !1093, !llvm.loop !1094

; <label>:86:                                     ; preds = %18
  ret void, !dbg !1096
}

; Function Attrs: nounwind readnone
declare void @llvm.dbg.declare(metadata, metadata, metadata) #5

define void @_Z3MLPPhPaS0_S0_S0_S_(i8*, i8*, i8*, i8*, i8*, i8*) #0 !dbg !1097 !xidane.fname !1100 !xidane.function_declaration_type !1101 !xidane.function_declaration_filename !1102 !xidane.function_argument_annotation !1103 {
  %7 = alloca i8*, align 4
  %8 = alloca i8*, align 4
  %9 = alloca i8*, align 4
  %10 = alloca i8*, align 4
  %11 = alloca i8*, align 4
  %12 = alloca i8*, align 4
  %13 = alloca [784 x i8], align 1
  %14 = alloca [78400 x i8], align 1
  %15 = alloca [100 x i8], align 1
  %16 = alloca [100 x i8], align 1
  %17 = alloca [1000 x i8], align 1
  %18 = alloca [10 x i8], align 1
  %19 = alloca [10 x i8], align 1
  store i8* %0, i8** %7, align 4
  call void @llvm.dbg.declare(metadata i8** %7, metadata !1104, metadata !1002), !dbg !1105
  store i8* %1, i8** %8, align 4
  call void @llvm.dbg.declare(metadata i8** %8, metadata !1106, metadata !1002), !dbg !1107
  store i8* %2, i8** %9, align 4
  call void @llvm.dbg.declare(metadata i8** %9, metadata !1108, metadata !1002), !dbg !1109
  store i8* %3, i8** %10, align 4
  call void @llvm.dbg.declare(metadata i8** %10, metadata !1110, metadata !1002), !dbg !1111
  store i8* %4, i8** %11, align 4
  call void @llvm.dbg.declare(metadata i8** %11, metadata !1112, metadata !1002), !dbg !1113
  store i8* %5, i8** %12, align 4
  call void @llvm.dbg.declare(metadata i8** %12, metadata !1114, metadata !1002), !dbg !1115
  call void @llvm.dbg.declare(metadata [784 x i8]* %13, metadata !1116, metadata !1002), !dbg !1120
  call void @llvm.dbg.declare(metadata [78400 x i8]* %14, metadata !1121, metadata !1002), !dbg !1125
  call void @llvm.dbg.declare(metadata [100 x i8]* %15, metadata !1126, metadata !1002), !dbg !1130
  call void @llvm.dbg.declare(metadata [100 x i8]* %16, metadata !1131, metadata !1002), !dbg !1133
  call void @llvm.dbg.declare(metadata [1000 x i8]* %17, metadata !1134, metadata !1002), !dbg !1138
  call void @llvm.dbg.declare(metadata [10 x i8]* %18, metadata !1139, metadata !1002), !dbg !1143
  call void @llvm.dbg.declare(metadata [10 x i8]* %19, metadata !1144, metadata !1002), !dbg !1146
  %20 = load i8*, i8** %7, align 4, !dbg !1147
  %21 = getelementptr inbounds [784 x i8], [784 x i8]* %13, i32 0, i32 0, !dbg !1148
  call void @_Z19read_image_from_ddrPhS_i(i8* %20, i8* %21, i32 784), !dbg !1149
  %22 = load i8*, i8** %8, align 4, !dbg !1150
  %23 = getelementptr inbounds [78400 x i8], [78400 x i8]* %14, i32 0, i32 0, !dbg !1151
  call void @_Z13read_from_ddrPaS_i(i8* %22, i8* %23, i32 78400), !dbg !1152
  %24 = load i8*, i8** %9, align 4, !dbg !1153
  %25 = getelementptr inbounds [100 x i8], [100 x i8]* %15, i32 0, i32 0, !dbg !1154
  call void @_Z13read_from_ddrPaS_i(i8* %24, i8* %25, i32 100), !dbg !1155
  %26 = load i8*, i8** %10, align 4, !dbg !1156
  %27 = getelementptr inbounds [1000 x i8], [1000 x i8]* %17, i32 0, i32 0, !dbg !1157
  call void @_Z13read_from_ddrPaS_i(i8* %26, i8* %27, i32 1000), !dbg !1158
  %28 = load i8*, i8** %11, align 4, !dbg !1159
  %29 = getelementptr inbounds [10 x i8], [10 x i8]* %18, i32 0, i32 0, !dbg !1160
  call void @_Z13read_from_ddrPaS_i(i8* %28, i8* %29, i32 10), !dbg !1161
  %30 = getelementptr inbounds [784 x i8], [784 x i8]* %13, i32 0, i32 0, !dbg !1162
  %31 = getelementptr inbounds [78400 x i8], [78400 x i8]* %14, i32 0, i32 0, !dbg !1163
  %32 = getelementptr inbounds [100 x i8], [100 x i8]* %15, i32 0, i32 0, !dbg !1164
  %33 = getelementptr inbounds [100 x i8], [100 x i8]* %16, i32 0, i32 0, !dbg !1165
  call void @_Z14fullyConnectedPhPaS0_S_ii(i8* %30, i8* %31, i8* %32, i8* %33, i32 100, i32 784), !dbg !1166
  %34 = getelementptr inbounds [100 x i8], [100 x i8]* %16, i32 0, i32 0, !dbg !1167
  %35 = getelementptr inbounds [1000 x i8], [1000 x i8]* %17, i32 0, i32 0, !dbg !1168
  %36 = getelementptr inbounds [10 x i8], [10 x i8]* %18, i32 0, i32 0, !dbg !1169
  %37 = getelementptr inbounds [10 x i8], [10 x i8]* %19, i32 0, i32 0, !dbg !1170
  call void @_Z14fullyConnectedPhPaS0_S_ii(i8* %34, i8* %35, i8* %36, i8* %37, i32 10, i32 100), !dbg !1171
  %38 = load i8*, i8** %12, align 4, !dbg !1172
  %39 = getelementptr inbounds [10 x i8], [10 x i8]* %19, i32 0, i32 0, !dbg !1173
  call void @_Z14output_resultsPhS_(i8* %38, i8* %39), !dbg !1174
  ret void, !dbg !1175
}

; Function Attrs: inlinehint nounwind
define linkonce_odr void @_Z19read_image_from_ddrPhS_i(i8*, i8*, i32) #6 comdat !dbg !1176 !xidane.fname !1179 !xidane.function_declaration_type !1180 !xidane.function_declaration_filename !1000 {
  %4 = alloca i8*, align 4
  %5 = alloca i8*, align 4
  %6 = alloca i32, align 4
  %7 = alloca i32, align 4
  store i8* %0, i8** %4, align 4
  call void @llvm.dbg.declare(metadata i8** %4, metadata !1181, metadata !1002), !dbg !1182
  store i8* %1, i8** %5, align 4
  call void @llvm.dbg.declare(metadata i8** %5, metadata !1183, metadata !1002), !dbg !1184
  store i32 %2, i32* %6, align 4
  call void @llvm.dbg.declare(metadata i32* %6, metadata !1185, metadata !1002), !dbg !1186
  call void @llvm.dbg.declare(metadata i32* %7, metadata !1187, metadata !1002), !dbg !1189
  store i32 0, i32* %7, align 4, !dbg !1189
  br label %8, !dbg !1190

; <label>:8:                                      ; preds = %20, %3
  %9 = load i32, i32* %7, align 4, !dbg !1191
  %10 = load i32, i32* %6, align 4, !dbg !1194
  %11 = icmp slt i32 %9, %10, !dbg !1195
  br i1 %11, label %12, label %23, !dbg !1196

; <label>:12:                                     ; preds = %8
  %13 = load i32, i32* %7, align 4, !dbg !1197
  %14 = load i8*, i8** %4, align 4, !dbg !1199
  %15 = getelementptr inbounds i8, i8* %14, i32 %13, !dbg !1199
  %16 = load i8, i8* %15, align 1, !dbg !1199
  %17 = load i32, i32* %7, align 4, !dbg !1200
  %18 = load i8*, i8** %5, align 4, !dbg !1201
  %19 = getelementptr inbounds i8, i8* %18, i32 %17, !dbg !1201
  store i8 %16, i8* %19, align 1, !dbg !1202
  br label %20, !dbg !1203

; <label>:20:                                     ; preds = %12
  %21 = load i32, i32* %7, align 4, !dbg !1204
  %22 = add nsw i32 %21, 1, !dbg !1204
  store i32 %22, i32* %7, align 4, !dbg !1204
  br label %8, !dbg !1206, !llvm.loop !1207

; <label>:23:                                     ; preds = %8
  ret void, !dbg !1209
}

; Function Attrs: inlinehint nounwind
define linkonce_odr void @_Z13read_from_ddrPaS_i(i8*, i8*, i32) #6 comdat !dbg !1210 !xidane.fname !1213 !xidane.function_declaration_type !1214 !xidane.function_declaration_filename !1000 {
  %4 = alloca i8*, align 4
  %5 = alloca i8*, align 4
  %6 = alloca i32, align 4
  %7 = alloca i32, align 4
  store i8* %0, i8** %4, align 4
  call void @llvm.dbg.declare(metadata i8** %4, metadata !1215, metadata !1002), !dbg !1216
  store i8* %1, i8** %5, align 4
  call void @llvm.dbg.declare(metadata i8** %5, metadata !1217, metadata !1002), !dbg !1218
  store i32 %2, i32* %6, align 4
  call void @llvm.dbg.declare(metadata i32* %6, metadata !1219, metadata !1002), !dbg !1220
  call void @llvm.dbg.declare(metadata i32* %7, metadata !1221, metadata !1002), !dbg !1223
  store i32 0, i32* %7, align 4, !dbg !1223
  br label %8, !dbg !1224

; <label>:8:                                      ; preds = %20, %3
  %9 = load i32, i32* %7, align 4, !dbg !1225
  %10 = load i32, i32* %6, align 4, !dbg !1228
  %11 = icmp slt i32 %9, %10, !dbg !1229
  br i1 %11, label %12, label %23, !dbg !1230

; <label>:12:                                     ; preds = %8
  %13 = load i32, i32* %7, align 4, !dbg !1231
  %14 = load i8*, i8** %4, align 4, !dbg !1233
  %15 = getelementptr inbounds i8, i8* %14, i32 %13, !dbg !1233
  %16 = load i8, i8* %15, align 1, !dbg !1233
  %17 = load i32, i32* %7, align 4, !dbg !1234
  %18 = load i8*, i8** %5, align 4, !dbg !1235
  %19 = getelementptr inbounds i8, i8* %18, i32 %17, !dbg !1235
  store i8 %16, i8* %19, align 1, !dbg !1236
  br label %20, !dbg !1237

; <label>:20:                                     ; preds = %12
  %21 = load i32, i32* %7, align 4, !dbg !1238
  %22 = add nsw i32 %21, 1, !dbg !1238
  store i32 %22, i32* %7, align 4, !dbg !1238
  br label %8, !dbg !1240, !llvm.loop !1241

; <label>:23:                                     ; preds = %8
  ret void, !dbg !1243
}

; Function Attrs: inlinehint nounwind
define linkonce_odr void @_Z14output_resultsPhS_(i8*, i8*) #6 comdat !dbg !1244 !xidane.fname !1247 !xidane.function_declaration_type !1248 !xidane.function_declaration_filename !1000 {
  %3 = alloca i8*, align 4
  %4 = alloca i8*, align 4
  %5 = alloca i32, align 4
  store i8* %0, i8** %3, align 4
  call void @llvm.dbg.declare(metadata i8** %3, metadata !1249, metadata !1002), !dbg !1250
  store i8* %1, i8** %4, align 4
  call void @llvm.dbg.declare(metadata i8** %4, metadata !1251, metadata !1002), !dbg !1252
  call void @llvm.dbg.declare(metadata i32* %5, metadata !1253, metadata !1002), !dbg !1255
  store i32 0, i32* %5, align 4, !dbg !1255
  br label %6, !dbg !1256

; <label>:6:                                      ; preds = %17, %2
  %7 = load i32, i32* %5, align 4, !dbg !1257
  %8 = icmp slt i32 %7, 10, !dbg !1260
  br i1 %8, label %9, label %20, !dbg !1261

; <label>:9:                                      ; preds = %6
  %10 = load i32, i32* %5, align 4, !dbg !1262
  %11 = load i8*, i8** %4, align 4, !dbg !1264
  %12 = getelementptr inbounds i8, i8* %11, i32 %10, !dbg !1264
  %13 = load i8, i8* %12, align 1, !dbg !1264
  %14 = load i32, i32* %5, align 4, !dbg !1265
  %15 = load i8*, i8** %3, align 4, !dbg !1266
  %16 = getelementptr inbounds i8, i8* %15, i32 %14, !dbg !1266
  store i8 %13, i8* %16, align 1, !dbg !1267
  br label %17, !dbg !1268

; <label>:17:                                     ; preds = %9
  %18 = load i32, i32* %5, align 4, !dbg !1269
  %19 = add nsw i32 %18, 1, !dbg !1269
  store i32 %19, i32* %5, align 4, !dbg !1269
  br label %6, !dbg !1271, !llvm.loop !1272

; <label>:20:                                     ; preds = %6
  ret void, !dbg !1274
}

define internal void @_GLOBAL__sub_I_mlp.cpp() #0 section ".text.startup" !dbg !1275 {
  call void @__cxx_global_var_init(), !dbg !1277
  ret void
}

attributes #0 = { "disable-tail-calls"="false" "less-precise-fpmad"="false" "no-frame-pointer-elim"="true" "no-frame-pointer-elim-non-leaf" "no-infs-fp-math"="false" "no-jump-tables"="false" "no-nans-fp-math"="false" "no-signed-zeros-fp-math"="false" "stack-protector-buffer-size"="8" "target-cpu"="cortex-a9" "target-features"="+dsp,+vfp3,-crypto,-d16,-fp-armv8,-fp-only-sp,-fp16,-neon,-vfp4" "unsafe-fp-math"="false" "use-soft-float"="false" }
attributes #1 = { "disable-tail-calls"="false" "less-precise-fpmad"="false" "no-frame-pointer-elim"="true" "no-frame-pointer-elim-non-leaf" "no-infs-fp-math"="false" "no-nans-fp-math"="false" "no-signed-zeros-fp-math"="false" "stack-protector-buffer-size"="8" "target-cpu"="cortex-a9" "target-features"="+dsp,+vfp3,-crypto,-d16,-fp-armv8,-fp-only-sp,-fp16,-neon,-vfp4" "unsafe-fp-math"="false" "use-soft-float"="false" }
attributes #2 = { nounwind "disable-tail-calls"="false" "less-precise-fpmad"="false" "no-frame-pointer-elim"="true" "no-frame-pointer-elim-non-leaf" "no-infs-fp-math"="false" "no-nans-fp-math"="false" "no-signed-zeros-fp-math"="false" "stack-protector-buffer-size"="8" "target-cpu"="cortex-a9" "target-features"="+dsp,+vfp3,-crypto,-d16,-fp-armv8,-fp-only-sp,-fp16,-neon,-vfp4" "unsafe-fp-math"="false" "use-soft-float"="false" }
attributes #3 = { nounwind }
attributes #4 = { nounwind "disable-tail-calls"="false" "less-precise-fpmad"="false" "no-frame-pointer-elim"="true" "no-frame-pointer-elim-non-leaf" "no-infs-fp-math"="false" "no-jump-tables"="false" "no-nans-fp-math"="false" "no-signed-zeros-fp-math"="false" "stack-protector-buffer-size"="8" "target-cpu"="cortex-a9" "target-features"="+dsp,+vfp3,-crypto,-d16,-fp-armv8,-fp-only-sp,-fp16,-neon,-vfp4" "unsafe-fp-math"="false" "use-soft-float"="false" }
attributes #5 = { nounwind readnone }
attributes #6 = { inlinehint nounwind "disable-tail-calls"="false" "less-precise-fpmad"="false" "no-frame-pointer-elim"="true" "no-frame-pointer-elim-non-leaf" "no-infs-fp-math"="false" "no-jump-tables"="false" "no-nans-fp-math"="false" "no-signed-zeros-fp-math"="false" "stack-protector-buffer-size"="8" "target-cpu"="cortex-a9" "target-features"="+dsp,+vfp3,-crypto,-d16,-fp-armv8,-fp-only-sp,-fp16,-neon,-vfp4" "unsafe-fp-math"="false" "use-soft-float"="false" }

!llvm.dbg.cu = !{!0}
!llvm.module.flags = !{!974, !975, !976, !977, !978}
!llvm.ident = !{!979}

!0 = distinct !DICompileUnit(language: DW_LANG_C_plus_plus, file: !1, producer: "clang version 3.9.0 (tags/RELEASE_390/final)", isOptimized: false, runtimeVersion: 0, emissionKind: FullDebug, enums: !2, globals: !3, imports: !23)
!1 = !DIFile(filename: "/home/steve/Graduate_Research/MLP/src/mlp.cpp", directory: "/home/steve/Graduate_Research/MLP/build/Pynq-Z1-pynqZ1")
!2 = !{}
!3 = !{!4}
!4 = distinct !DIGlobalVariable(name: "__ioinit", linkageName: "_ZStL8__ioinit", scope: !5, file: !7, line: 74, type: !8, isLocal: true, isDefinition: true, variable: %"class.std::ios_base::Init"* @_ZStL8__ioinit)
!5 = !DINamespace(name: "std", scope: null, file: !6, line: 229)
!6 = !DIFile(filename: "/tools/Xilinx/SDK/2018.3/gnu/aarch32/lin/gcc-arm-linux-gnueabi/arm-linux-gnueabihf/include/c++/7.3.1/arm-linux-gnueabihf/bits/c++config.h", directory: "/home/steve/Graduate_Research/MLP/build/Pynq-Z1-pynqZ1")
!7 = !DIFile(filename: "/tools/Xilinx/SDK/2018.3/gnu/aarch32/lin/gcc-arm-linux-gnueabi/arm-linux-gnueabihf/include/c++/7.3.1/iostream", directory: "/home/steve/Graduate_Research/MLP/build/Pynq-Z1-pynqZ1")
!8 = distinct !DICompositeType(tag: DW_TAG_class_type, name: "Init", scope: !10, file: !9, line: 601, size: 8, align: 8, elements: !11, identifier: "_ZTSNSt8ios_base4InitE")
!9 = !DIFile(filename: "/tools/Xilinx/SDK/2018.3/gnu/aarch32/lin/gcc-arm-linux-gnueabi/arm-linux-gnueabihf/include/c++/7.3.1/bits/ios_base.h", directory: "/home/steve/Graduate_Research/MLP/build/Pynq-Z1-pynqZ1")
!10 = !DICompositeType(tag: DW_TAG_class_type, name: "ios_base", scope: !5, file: !9, line: 228, size: 896, align: 32, flags: DIFlagFwdDecl, identifier: "_ZTSSt8ios_base")
!11 = !{!12, !16, !18, !22}
!12 = !DIDerivedType(tag: DW_TAG_member, name: "_S_refcount", scope: !8, file: !9, line: 609, baseType: !13, flags: DIFlagStaticMember)
!13 = !DIDerivedType(tag: DW_TAG_typedef, name: "_Atomic_word", file: !14, line: 32, baseType: !15)
!14 = !DIFile(filename: "/tools/Xilinx/SDK/2018.3/gnu/aarch32/lin/gcc-arm-linux-gnueabi/arm-linux-gnueabihf/include/c++/7.3.1/arm-linux-gnueabihf/bits/atomic_word.h", directory: "/home/steve/Graduate_Research/MLP/build/Pynq-Z1-pynqZ1")
!15 = !DIBasicType(name: "int", size: 32, align: 32, encoding: DW_ATE_signed)
!16 = !DIDerivedType(tag: DW_TAG_member, name: "_S_synced_with_stdio", scope: !8, file: !9, line: 610, baseType: !17, flags: DIFlagStaticMember)
!17 = !DIBasicType(name: "bool", size: 8, align: 8, encoding: DW_ATE_boolean)
!18 = !DISubprogram(name: "Init", scope: !8, file: !9, line: 605, type: !19, isLocal: false, isDefinition: false, scopeLine: 605, flags: DIFlagPublic | DIFlagPrototyped, isOptimized: false)
!19 = !DISubroutineType(types: !20)
!20 = !{null, !21}
!21 = !DIDerivedType(tag: DW_TAG_pointer_type, baseType: !8, size: 32, align: 32, flags: DIFlagArtificial | DIFlagObjectPointer)
!22 = !DISubprogram(name: "~Init", scope: !8, file: !9, line: 606, type: !19, isLocal: false, isDefinition: false, scopeLine: 606, flags: DIFlagPublic | DIFlagPrototyped, isOptimized: false)
!23 = !{!24, !42, !45, !50, !58, !66, !70, !77, !81, !85, !87, !89, !93, !104, !108, !114, !120, !122, !126, !130, !134, !138, !150, !152, !156, !160, !164, !166, !172, !176, !180, !182, !184, !188, !196, !200, !204, !208, !210, !216, !218, !225, !230, !234, !239, !244, !248, !252, !254, !256, !260, !264, !268, !270, !274, !278, !280, !282, !286, !292, !297, !302, !303, !304, !305, !306, !307, !308, !309, !310, !311, !312, !366, !370, !374, !380, !384, !387, !390, !393, !395, !397, !399, !401, !403, !405, !407, !410, !412, !417, !421, !424, !427, !429, !431, !433, !435, !437, !439, !441, !443, !446, !448, !451, !455, !460, !465, !467, !469, !471, !473, !475, !477, !479, !481, !483, !485, !487, !489, !491, !493, !495, !498, !501, !507, !511, !516, !518, !522, !526, !530, !540, !544, !548, !552, !556, !560, !564, !568, !572, !576, !580, !584, !588, !590, !594, !598, !602, !608, !612, !616, !618, !622, !626, !632, !634, !638, !642, !646, !650, !654, !658, !662, !663, !664, !665, !668, !669, !670, !671, !672, !673, !674, !677, !683, !688, !692, !694, !696, !698, !700, !707, !711, !715, !719, !723, !727, !732, !736, !738, !742, !748, !752, !757, !759, !761, !765, !769, !773, !775, !777, !779, !781, !785, !787, !789, !793, !797, !801, !805, !809, !811, !813, !817, !821, !825, !829, !831, !833, !837, !841, !842, !843, !844, !845, !846, !851, !854, !855, !857, !859, !861, !863, !867, !869, !871, !873, !875, !877, !879, !881, !883, !887, !891, !893, !897, !901, !906, !910, !914, !918, !922, !926, !928, !930, !932, !936, !940, !944, !948, !952, !954, !956, !958, !962, !966, !970, !972}
!24 = !DIImportedEntity(tag: DW_TAG_imported_declaration, scope: !5, entity: !25, line: 64)
!25 = !DIDerivedType(tag: DW_TAG_typedef, name: "mbstate_t", file: !26, line: 6, baseType: !27)
!26 = !DIFile(filename: "/tools/Xilinx/SDK/2018.3/gnu/aarch32/lin/gcc-arm-linux-gnueabi/arm-linux-gnueabihf/libc/usr/include/bits/types/mbstate_t.h", directory: "/home/steve/Graduate_Research/MLP/build/Pynq-Z1-pynqZ1")
!27 = !DIDerivedType(tag: DW_TAG_typedef, name: "__mbstate_t", file: !28, line: 21, baseType: !29)
!28 = !DIFile(filename: "/tools/Xilinx/SDK/2018.3/gnu/aarch32/lin/gcc-arm-linux-gnueabi/arm-linux-gnueabihf/libc/usr/include/bits/types/__mbstate_t.h", directory: "/home/steve/Graduate_Research/MLP/build/Pynq-Z1-pynqZ1")
!29 = distinct !DICompositeType(tag: DW_TAG_structure_type, file: !28, line: 13, size: 64, align: 32, elements: !30, identifier: "_ZTS11__mbstate_t")
!30 = !{!31, !32}
!31 = !DIDerivedType(tag: DW_TAG_member, name: "__count", scope: !29, file: !28, line: 15, baseType: !15, size: 32, align: 32)
!32 = !DIDerivedType(tag: DW_TAG_member, name: "__value", scope: !29, file: !28, line: 20, baseType: !33, size: 32, align: 32, offset: 32)
!33 = distinct !DICompositeType(tag: DW_TAG_union_type, scope: !29, file: !28, line: 16, size: 32, align: 32, elements: !34, identifier: "_ZTSN11__mbstate_tUt_E")
!34 = !{!35, !37}
!35 = !DIDerivedType(tag: DW_TAG_member, name: "__wch", scope: !33, file: !28, line: 18, baseType: !36, size: 32, align: 32)
!36 = !DIBasicType(name: "unsigned int", size: 32, align: 32, encoding: DW_ATE_unsigned)
!37 = !DIDerivedType(tag: DW_TAG_member, name: "__wchb", scope: !33, file: !28, line: 19, baseType: !38, size: 32, align: 8)
!38 = !DICompositeType(tag: DW_TAG_array_type, baseType: !39, size: 32, align: 8, elements: !40)
!39 = !DIBasicType(name: "char", size: 8, align: 8, encoding: DW_ATE_unsigned_char)
!40 = !{!41}
!41 = !DISubrange(count: 4)
!42 = !DIImportedEntity(tag: DW_TAG_imported_declaration, scope: !5, entity: !43, line: 139)
!43 = !DIDerivedType(tag: DW_TAG_typedef, name: "wint_t", file: !44, line: 20, baseType: !36)
!44 = !DIFile(filename: "/tools/Xilinx/SDK/2018.3/gnu/aarch32/lin/gcc-arm-linux-gnueabi/arm-linux-gnueabihf/libc/usr/include/bits/types/wint_t.h", directory: "/home/steve/Graduate_Research/MLP/build/Pynq-Z1-pynqZ1")
!45 = !DIImportedEntity(tag: DW_TAG_imported_declaration, scope: !5, entity: !46, line: 141)
!46 = !DISubprogram(name: "btowc", scope: !47, file: !47, line: 284, type: !48, isLocal: false, isDefinition: false, flags: DIFlagPrototyped, isOptimized: false)
!47 = !DIFile(filename: "/tools/Xilinx/SDK/2018.3/gnu/aarch32/lin/gcc-arm-linux-gnueabi/arm-linux-gnueabihf/libc/usr/include/wchar.h", directory: "/home/steve/Graduate_Research/MLP/build/Pynq-Z1-pynqZ1")
!48 = !DISubroutineType(types: !49)
!49 = !{!43, !15}
!50 = !DIImportedEntity(tag: DW_TAG_imported_declaration, scope: !5, entity: !51, line: 142)
!51 = !DISubprogram(name: "fgetwc", scope: !47, file: !47, line: 660, type: !52, isLocal: false, isDefinition: false, flags: DIFlagPrototyped, isOptimized: false)
!52 = !DISubroutineType(types: !53)
!53 = !{!43, !54}
!54 = !DIDerivedType(tag: DW_TAG_pointer_type, baseType: !55, size: 32, align: 32)
!55 = !DIDerivedType(tag: DW_TAG_typedef, name: "__FILE", file: !56, line: 5, baseType: !57)
!56 = !DIFile(filename: "/tools/Xilinx/SDK/2018.3/gnu/aarch32/lin/gcc-arm-linux-gnueabi/arm-linux-gnueabihf/libc/usr/include/bits/types/__FILE.h", directory: "/home/steve/Graduate_Research/MLP/build/Pynq-Z1-pynqZ1")
!57 = !DICompositeType(tag: DW_TAG_structure_type, name: "_IO_FILE", file: !56, line: 4, flags: DIFlagFwdDecl, identifier: "_ZTS8_IO_FILE")
!58 = !DIImportedEntity(tag: DW_TAG_imported_declaration, scope: !5, entity: !59, line: 143)
!59 = !DISubprogram(name: "fgetws", scope: !47, file: !47, line: 689, type: !60, isLocal: false, isDefinition: false, flags: DIFlagPrototyped, isOptimized: false)
!60 = !DISubroutineType(types: !61)
!61 = !{!62, !64, !15, !65}
!62 = !DIDerivedType(tag: DW_TAG_pointer_type, baseType: !63, size: 32, align: 32)
!63 = !DIBasicType(name: "wchar_t", size: 32, align: 32, encoding: DW_ATE_unsigned)
!64 = !DIDerivedType(tag: DW_TAG_restrict_type, baseType: !62)
!65 = !DIDerivedType(tag: DW_TAG_restrict_type, baseType: !54)
!66 = !DIImportedEntity(tag: DW_TAG_imported_declaration, scope: !5, entity: !67, line: 144)
!67 = !DISubprogram(name: "fputwc", scope: !47, file: !47, line: 674, type: !68, isLocal: false, isDefinition: false, flags: DIFlagPrototyped, isOptimized: false)
!68 = !DISubroutineType(types: !69)
!69 = !{!43, !63, !54}
!70 = !DIImportedEntity(tag: DW_TAG_imported_declaration, scope: !5, entity: !71, line: 145)
!71 = !DISubprogram(name: "fputws", scope: !47, file: !47, line: 696, type: !72, isLocal: false, isDefinition: false, flags: DIFlagPrototyped, isOptimized: false)
!72 = !DISubroutineType(types: !73)
!73 = !{!15, !74, !65}
!74 = !DIDerivedType(tag: DW_TAG_restrict_type, baseType: !75)
!75 = !DIDerivedType(tag: DW_TAG_pointer_type, baseType: !76, size: 32, align: 32)
!76 = !DIDerivedType(tag: DW_TAG_const_type, baseType: !63)
!77 = !DIImportedEntity(tag: DW_TAG_imported_declaration, scope: !5, entity: !78, line: 146)
!78 = !DISubprogram(name: "fwide", scope: !47, file: !47, line: 506, type: !79, isLocal: false, isDefinition: false, flags: DIFlagPrototyped, isOptimized: false)
!79 = !DISubroutineType(types: !80)
!80 = !{!15, !54, !15}
!81 = !DIImportedEntity(tag: DW_TAG_imported_declaration, scope: !5, entity: !82, line: 147)
!82 = !DISubprogram(name: "fwprintf", scope: !47, file: !47, line: 513, type: !83, isLocal: false, isDefinition: false, flags: DIFlagPrototyped, isOptimized: false)
!83 = !DISubroutineType(types: !84)
!84 = !{!15, !65, !74, null}
!85 = !DIImportedEntity(tag: DW_TAG_imported_declaration, scope: !5, entity: !86, line: 148)
!86 = !DISubprogram(name: "fwscanf", scope: !47, file: !47, line: 554, type: !83, isLocal: false, isDefinition: false, flags: DIFlagPrototyped, isOptimized: false)
!87 = !DIImportedEntity(tag: DW_TAG_imported_declaration, scope: !5, entity: !88, line: 149)
!88 = !DISubprogram(name: "getwc", scope: !47, file: !47, line: 661, type: !52, isLocal: false, isDefinition: false, flags: DIFlagPrototyped, isOptimized: false)
!89 = !DIImportedEntity(tag: DW_TAG_imported_declaration, scope: !5, entity: !90, line: 150)
!90 = !DISubprogram(name: "getwchar", scope: !47, file: !47, line: 667, type: !91, isLocal: false, isDefinition: false, flags: DIFlagPrototyped, isOptimized: false)
!91 = !DISubroutineType(types: !92)
!92 = !{!43}
!93 = !DIImportedEntity(tag: DW_TAG_imported_declaration, scope: !5, entity: !94, line: 151)
!94 = !DISubprogram(name: "mbrlen", scope: !47, file: !47, line: 307, type: !95, isLocal: false, isDefinition: false, flags: DIFlagPrototyped, isOptimized: false)
!95 = !DISubroutineType(types: !96)
!96 = !{!97, !99, !97, !102}
!97 = !DIDerivedType(tag: DW_TAG_typedef, name: "size_t", file: !98, line: 216, baseType: !36)
!98 = !DIFile(filename: "/tools/Xilinx/SDK/2018.3/gnu/aarch32/lin/gcc-arm-linux-gnueabi/lib/gcc/arm-linux-gnueabihf/7.3.1/include/stddef.h", directory: "/home/steve/Graduate_Research/MLP/build/Pynq-Z1-pynqZ1")
!99 = !DIDerivedType(tag: DW_TAG_restrict_type, baseType: !100)
!100 = !DIDerivedType(tag: DW_TAG_pointer_type, baseType: !101, size: 32, align: 32)
!101 = !DIDerivedType(tag: DW_TAG_const_type, baseType: !39)
!102 = !DIDerivedType(tag: DW_TAG_restrict_type, baseType: !103)
!103 = !DIDerivedType(tag: DW_TAG_pointer_type, baseType: !25, size: 32, align: 32)
!104 = !DIImportedEntity(tag: DW_TAG_imported_declaration, scope: !5, entity: !105, line: 152)
!105 = !DISubprogram(name: "mbrtowc", scope: !47, file: !47, line: 296, type: !106, isLocal: false, isDefinition: false, flags: DIFlagPrototyped, isOptimized: false)
!106 = !DISubroutineType(types: !107)
!107 = !{!97, !64, !99, !97, !102}
!108 = !DIImportedEntity(tag: DW_TAG_imported_declaration, scope: !5, entity: !109, line: 153)
!109 = !DISubprogram(name: "mbsinit", scope: !47, file: !47, line: 292, type: !110, isLocal: false, isDefinition: false, flags: DIFlagPrototyped, isOptimized: false)
!110 = !DISubroutineType(types: !111)
!111 = !{!15, !112}
!112 = !DIDerivedType(tag: DW_TAG_pointer_type, baseType: !113, size: 32, align: 32)
!113 = !DIDerivedType(tag: DW_TAG_const_type, baseType: !25)
!114 = !DIImportedEntity(tag: DW_TAG_imported_declaration, scope: !5, entity: !115, line: 154)
!115 = !DISubprogram(name: "mbsrtowcs", scope: !47, file: !47, line: 337, type: !116, isLocal: false, isDefinition: false, flags: DIFlagPrototyped, isOptimized: false)
!116 = !DISubroutineType(types: !117)
!117 = !{!97, !64, !118, !97, !102}
!118 = !DIDerivedType(tag: DW_TAG_restrict_type, baseType: !119)
!119 = !DIDerivedType(tag: DW_TAG_pointer_type, baseType: !100, size: 32, align: 32)
!120 = !DIImportedEntity(tag: DW_TAG_imported_declaration, scope: !5, entity: !121, line: 155)
!121 = !DISubprogram(name: "putwc", scope: !47, file: !47, line: 675, type: !68, isLocal: false, isDefinition: false, flags: DIFlagPrototyped, isOptimized: false)
!122 = !DIImportedEntity(tag: DW_TAG_imported_declaration, scope: !5, entity: !123, line: 156)
!123 = !DISubprogram(name: "putwchar", scope: !47, file: !47, line: 681, type: !124, isLocal: false, isDefinition: false, flags: DIFlagPrototyped, isOptimized: false)
!124 = !DISubroutineType(types: !125)
!125 = !{!43, !63}
!126 = !DIImportedEntity(tag: DW_TAG_imported_declaration, scope: !5, entity: !127, line: 158)
!127 = !DISubprogram(name: "swprintf", scope: !47, file: !47, line: 523, type: !128, isLocal: false, isDefinition: false, flags: DIFlagPrototyped, isOptimized: false)
!128 = !DISubroutineType(types: !129)
!129 = !{!15, !64, !97, !74, null}
!130 = !DIImportedEntity(tag: DW_TAG_imported_declaration, scope: !5, entity: !131, line: 160)
!131 = !DISubprogram(name: "swscanf", scope: !47, file: !47, line: 564, type: !132, isLocal: false, isDefinition: false, flags: DIFlagPrototyped, isOptimized: false)
!132 = !DISubroutineType(types: !133)
!133 = !{!15, !74, !74, null}
!134 = !DIImportedEntity(tag: DW_TAG_imported_declaration, scope: !5, entity: !135, line: 161)
!135 = !DISubprogram(name: "ungetwc", scope: !47, file: !47, line: 704, type: !136, isLocal: false, isDefinition: false, flags: DIFlagPrototyped, isOptimized: false)
!136 = !DISubroutineType(types: !137)
!137 = !{!43, !43, !54}
!138 = !DIImportedEntity(tag: DW_TAG_imported_declaration, scope: !5, entity: !139, line: 162)
!139 = !DISubprogram(name: "vfwprintf", scope: !47, file: !47, line: 531, type: !140, isLocal: false, isDefinition: false, flags: DIFlagPrototyped, isOptimized: false)
!140 = !DISubroutineType(types: !141)
!141 = !{!15, !65, !74, !142}
!142 = !DIDerivedType(tag: DW_TAG_typedef, name: "__gnuc_va_list", file: !143, line: 40, baseType: !144)
!143 = !DIFile(filename: "/tools/Xilinx/SDK/2018.3/gnu/aarch32/lin/gcc-arm-linux-gnueabi/lib/gcc/arm-linux-gnueabihf/7.3.1/include/stdarg.h", directory: "/home/steve/Graduate_Research/MLP/build/Pynq-Z1-pynqZ1")
!144 = !DIDerivedType(tag: DW_TAG_typedef, name: "__builtin_va_list", file: !1, baseType: !145)
!145 = distinct !DICompositeType(tag: DW_TAG_structure_type, name: "__va_list", scope: !146, file: !1, size: 32, align: 32, elements: !147, identifier: "_ZTSSt9__va_list")
!146 = !DINamespace(name: "std", scope: null, file: !1)
!147 = !{!148}
!148 = !DIDerivedType(tag: DW_TAG_member, name: "__ap", scope: !145, file: !1, baseType: !149, size: 32, align: 32)
!149 = !DIDerivedType(tag: DW_TAG_pointer_type, baseType: null, size: 32, align: 32)
!150 = !DIImportedEntity(tag: DW_TAG_imported_declaration, scope: !5, entity: !151, line: 164)
!151 = !DISubprogram(name: "vfwscanf", scope: !47, file: !47, line: 606, type: !140, isLocal: false, isDefinition: false, flags: DIFlagPrototyped, isOptimized: false)
!152 = !DIImportedEntity(tag: DW_TAG_imported_declaration, scope: !5, entity: !153, line: 167)
!153 = !DISubprogram(name: "vswprintf", scope: !47, file: !47, line: 544, type: !154, isLocal: false, isDefinition: false, flags: DIFlagPrototyped, isOptimized: false)
!154 = !DISubroutineType(types: !155)
!155 = !{!15, !64, !97, !74, !142}
!156 = !DIImportedEntity(tag: DW_TAG_imported_declaration, scope: !5, entity: !157, line: 170)
!157 = !DISubprogram(name: "vswscanf", scope: !47, file: !47, line: 618, type: !158, isLocal: false, isDefinition: false, flags: DIFlagPrototyped, isOptimized: false)
!158 = !DISubroutineType(types: !159)
!159 = !{!15, !74, !74, !142}
!160 = !DIImportedEntity(tag: DW_TAG_imported_declaration, scope: !5, entity: !161, line: 172)
!161 = !DISubprogram(name: "vwprintf", scope: !47, file: !47, line: 539, type: !162, isLocal: false, isDefinition: false, flags: DIFlagPrototyped, isOptimized: false)
!162 = !DISubroutineType(types: !163)
!163 = !{!15, !74, !142}
!164 = !DIImportedEntity(tag: DW_TAG_imported_declaration, scope: !5, entity: !165, line: 174)
!165 = !DISubprogram(name: "vwscanf", scope: !47, file: !47, line: 614, type: !162, isLocal: false, isDefinition: false, flags: DIFlagPrototyped, isOptimized: false)
!166 = !DIImportedEntity(tag: DW_TAG_imported_declaration, scope: !5, entity: !167, line: 176)
!167 = !DISubprogram(name: "wcrtomb", scope: !47, file: !47, line: 301, type: !168, isLocal: false, isDefinition: false, flags: DIFlagPrototyped, isOptimized: false)
!168 = !DISubroutineType(types: !169)
!169 = !{!97, !170, !63, !102}
!170 = !DIDerivedType(tag: DW_TAG_restrict_type, baseType: !171)
!171 = !DIDerivedType(tag: DW_TAG_pointer_type, baseType: !39, size: 32, align: 32)
!172 = !DIImportedEntity(tag: DW_TAG_imported_declaration, scope: !5, entity: !173, line: 177)
!173 = !DISubprogram(name: "wcscat", scope: !47, file: !47, line: 97, type: !174, isLocal: false, isDefinition: false, flags: DIFlagPrototyped, isOptimized: false)
!174 = !DISubroutineType(types: !175)
!175 = !{!62, !64, !74}
!176 = !DIImportedEntity(tag: DW_TAG_imported_declaration, scope: !5, entity: !177, line: 178)
!177 = !DISubprogram(name: "wcscmp", scope: !47, file: !47, line: 106, type: !178, isLocal: false, isDefinition: false, flags: DIFlagPrototyped, isOptimized: false)
!178 = !DISubroutineType(types: !179)
!179 = !{!15, !75, !75}
!180 = !DIImportedEntity(tag: DW_TAG_imported_declaration, scope: !5, entity: !181, line: 179)
!181 = !DISubprogram(name: "wcscoll", scope: !47, file: !47, line: 131, type: !178, isLocal: false, isDefinition: false, flags: DIFlagPrototyped, isOptimized: false)
!182 = !DIImportedEntity(tag: DW_TAG_imported_declaration, scope: !5, entity: !183, line: 180)
!183 = !DISubprogram(name: "wcscpy", scope: !47, file: !47, line: 87, type: !174, isLocal: false, isDefinition: false, flags: DIFlagPrototyped, isOptimized: false)
!184 = !DIImportedEntity(tag: DW_TAG_imported_declaration, scope: !5, entity: !185, line: 181)
!185 = !DISubprogram(name: "wcscspn", scope: !47, file: !47, line: 187, type: !186, isLocal: false, isDefinition: false, flags: DIFlagPrototyped, isOptimized: false)
!186 = !DISubroutineType(types: !187)
!187 = !{!97, !75, !75}
!188 = !DIImportedEntity(tag: DW_TAG_imported_declaration, scope: !5, entity: !189, line: 182)
!189 = !DISubprogram(name: "wcsftime", scope: !47, file: !47, line: 768, type: !190, isLocal: false, isDefinition: false, flags: DIFlagPrototyped, isOptimized: false)
!190 = !DISubroutineType(types: !191)
!191 = !{!97, !64, !97, !74, !192}
!192 = !DIDerivedType(tag: DW_TAG_restrict_type, baseType: !193)
!193 = !DIDerivedType(tag: DW_TAG_pointer_type, baseType: !194, size: 32, align: 32)
!194 = !DIDerivedType(tag: DW_TAG_const_type, baseType: !195)
!195 = !DICompositeType(tag: DW_TAG_structure_type, name: "tm", file: !47, line: 83, flags: DIFlagFwdDecl, identifier: "_ZTS2tm")
!196 = !DIImportedEntity(tag: DW_TAG_imported_declaration, scope: !5, entity: !197, line: 183)
!197 = !DISubprogram(name: "wcslen", scope: !47, file: !47, line: 222, type: !198, isLocal: false, isDefinition: false, flags: DIFlagPrototyped, isOptimized: false)
!198 = !DISubroutineType(types: !199)
!199 = !{!97, !75}
!200 = !DIImportedEntity(tag: DW_TAG_imported_declaration, scope: !5, entity: !201, line: 184)
!201 = !DISubprogram(name: "wcsncat", scope: !47, file: !47, line: 101, type: !202, isLocal: false, isDefinition: false, flags: DIFlagPrototyped, isOptimized: false)
!202 = !DISubroutineType(types: !203)
!203 = !{!62, !64, !74, !97}
!204 = !DIImportedEntity(tag: DW_TAG_imported_declaration, scope: !5, entity: !205, line: 185)
!205 = !DISubprogram(name: "wcsncmp", scope: !47, file: !47, line: 109, type: !206, isLocal: false, isDefinition: false, flags: DIFlagPrototyped, isOptimized: false)
!206 = !DISubroutineType(types: !207)
!207 = !{!15, !75, !75, !97}
!208 = !DIImportedEntity(tag: DW_TAG_imported_declaration, scope: !5, entity: !209, line: 186)
!209 = !DISubprogram(name: "wcsncpy", scope: !47, file: !47, line: 92, type: !202, isLocal: false, isDefinition: false, flags: DIFlagPrototyped, isOptimized: false)
!210 = !DIImportedEntity(tag: DW_TAG_imported_declaration, scope: !5, entity: !211, line: 187)
!211 = !DISubprogram(name: "wcsrtombs", scope: !47, file: !47, line: 343, type: !212, isLocal: false, isDefinition: false, flags: DIFlagPrototyped, isOptimized: false)
!212 = !DISubroutineType(types: !213)
!213 = !{!97, !170, !214, !97, !102}
!214 = !DIDerivedType(tag: DW_TAG_restrict_type, baseType: !215)
!215 = !DIDerivedType(tag: DW_TAG_pointer_type, baseType: !75, size: 32, align: 32)
!216 = !DIImportedEntity(tag: DW_TAG_imported_declaration, scope: !5, entity: !217, line: 188)
!217 = !DISubprogram(name: "wcsspn", scope: !47, file: !47, line: 191, type: !186, isLocal: false, isDefinition: false, flags: DIFlagPrototyped, isOptimized: false)
!218 = !DIImportedEntity(tag: DW_TAG_imported_declaration, scope: !5, entity: !219, line: 189)
!219 = !DISubprogram(name: "wcstod", scope: !47, file: !47, line: 377, type: !220, isLocal: false, isDefinition: false, flags: DIFlagPrototyped, isOptimized: false)
!220 = !DISubroutineType(types: !221)
!221 = !{!222, !74, !223}
!222 = !DIBasicType(name: "double", size: 64, align: 64, encoding: DW_ATE_float)
!223 = !DIDerivedType(tag: DW_TAG_restrict_type, baseType: !224)
!224 = !DIDerivedType(tag: DW_TAG_pointer_type, baseType: !62, size: 32, align: 32)
!225 = !DIImportedEntity(tag: DW_TAG_imported_declaration, scope: !5, entity: !226, line: 191)
!226 = !DISubprogram(name: "wcstof", scope: !47, file: !47, line: 382, type: !227, isLocal: false, isDefinition: false, flags: DIFlagPrototyped, isOptimized: false)
!227 = !DISubroutineType(types: !228)
!228 = !{!229, !74, !223}
!229 = !DIBasicType(name: "float", size: 32, align: 32, encoding: DW_ATE_float)
!230 = !DIImportedEntity(tag: DW_TAG_imported_declaration, scope: !5, entity: !231, line: 193)
!231 = !DISubprogram(name: "wcstok", scope: !47, file: !47, line: 217, type: !232, isLocal: false, isDefinition: false, flags: DIFlagPrototyped, isOptimized: false)
!232 = !DISubroutineType(types: !233)
!233 = !{!62, !64, !74, !223}
!234 = !DIImportedEntity(tag: DW_TAG_imported_declaration, scope: !5, entity: !235, line: 194)
!235 = !DISubprogram(name: "wcstol", scope: !47, file: !47, line: 397, type: !236, isLocal: false, isDefinition: false, flags: DIFlagPrototyped, isOptimized: false)
!236 = !DISubroutineType(types: !237)
!237 = !{!238, !74, !223, !15}
!238 = !DIBasicType(name: "long int", size: 32, align: 32, encoding: DW_ATE_signed)
!239 = !DIImportedEntity(tag: DW_TAG_imported_declaration, scope: !5, entity: !240, line: 195)
!240 = !DISubprogram(name: "wcstoul", scope: !47, file: !47, line: 402, type: !241, isLocal: false, isDefinition: false, flags: DIFlagPrototyped, isOptimized: false)
!241 = !DISubroutineType(types: !242)
!242 = !{!243, !74, !223, !15}
!243 = !DIBasicType(name: "long unsigned int", size: 32, align: 32, encoding: DW_ATE_unsigned)
!244 = !DIImportedEntity(tag: DW_TAG_imported_declaration, scope: !5, entity: !245, line: 196)
!245 = !DISubprogram(name: "wcsxfrm", scope: !47, file: !47, line: 135, type: !246, isLocal: false, isDefinition: false, flags: DIFlagPrototyped, isOptimized: false)
!246 = !DISubroutineType(types: !247)
!247 = !{!97, !64, !74, !97}
!248 = !DIImportedEntity(tag: DW_TAG_imported_declaration, scope: !5, entity: !249, line: 197)
!249 = !DISubprogram(name: "wctob", scope: !47, file: !47, line: 288, type: !250, isLocal: false, isDefinition: false, flags: DIFlagPrototyped, isOptimized: false)
!250 = !DISubroutineType(types: !251)
!251 = !{!15, !43}
!252 = !DIImportedEntity(tag: DW_TAG_imported_declaration, scope: !5, entity: !253, line: 198)
!253 = !DISubprogram(name: "wmemcmp", scope: !47, file: !47, line: 258, type: !206, isLocal: false, isDefinition: false, flags: DIFlagPrototyped, isOptimized: false)
!254 = !DIImportedEntity(tag: DW_TAG_imported_declaration, scope: !5, entity: !255, line: 199)
!255 = !DISubprogram(name: "wmemcpy", scope: !47, file: !47, line: 262, type: !202, isLocal: false, isDefinition: false, flags: DIFlagPrototyped, isOptimized: false)
!256 = !DIImportedEntity(tag: DW_TAG_imported_declaration, scope: !5, entity: !257, line: 200)
!257 = !DISubprogram(name: "wmemmove", scope: !47, file: !47, line: 267, type: !258, isLocal: false, isDefinition: false, flags: DIFlagPrototyped, isOptimized: false)
!258 = !DISubroutineType(types: !259)
!259 = !{!62, !62, !75, !97}
!260 = !DIImportedEntity(tag: DW_TAG_imported_declaration, scope: !5, entity: !261, line: 201)
!261 = !DISubprogram(name: "wmemset", scope: !47, file: !47, line: 271, type: !262, isLocal: false, isDefinition: false, flags: DIFlagPrototyped, isOptimized: false)
!262 = !DISubroutineType(types: !263)
!263 = !{!62, !62, !63, !97}
!264 = !DIImportedEntity(tag: DW_TAG_imported_declaration, scope: !5, entity: !265, line: 202)
!265 = !DISubprogram(name: "wprintf", scope: !47, file: !47, line: 520, type: !266, isLocal: false, isDefinition: false, flags: DIFlagPrototyped, isOptimized: false)
!266 = !DISubroutineType(types: !267)
!267 = !{!15, !74, null}
!268 = !DIImportedEntity(tag: DW_TAG_imported_declaration, scope: !5, entity: !269, line: 203)
!269 = !DISubprogram(name: "wscanf", scope: !47, file: !47, line: 561, type: !266, isLocal: false, isDefinition: false, flags: DIFlagPrototyped, isOptimized: false)
!270 = !DIImportedEntity(tag: DW_TAG_imported_declaration, scope: !5, entity: !271, line: 204)
!271 = !DISubprogram(name: "wcschr", scope: !47, file: !47, line: 164, type: !272, isLocal: false, isDefinition: false, flags: DIFlagPrototyped, isOptimized: false)
!272 = !DISubroutineType(types: !273)
!273 = !{!62, !75, !63}
!274 = !DIImportedEntity(tag: DW_TAG_imported_declaration, scope: !5, entity: !275, line: 205)
!275 = !DISubprogram(name: "wcspbrk", scope: !47, file: !47, line: 201, type: !276, isLocal: false, isDefinition: false, flags: DIFlagPrototyped, isOptimized: false)
!276 = !DISubroutineType(types: !277)
!277 = !{!62, !75, !75}
!278 = !DIImportedEntity(tag: DW_TAG_imported_declaration, scope: !5, entity: !279, line: 206)
!279 = !DISubprogram(name: "wcsrchr", scope: !47, file: !47, line: 174, type: !272, isLocal: false, isDefinition: false, flags: DIFlagPrototyped, isOptimized: false)
!280 = !DIImportedEntity(tag: DW_TAG_imported_declaration, scope: !5, entity: !281, line: 207)
!281 = !DISubprogram(name: "wcsstr", scope: !47, file: !47, line: 212, type: !276, isLocal: false, isDefinition: false, flags: DIFlagPrototyped, isOptimized: false)
!282 = !DIImportedEntity(tag: DW_TAG_imported_declaration, scope: !5, entity: !283, line: 208)
!283 = !DISubprogram(name: "wmemchr", scope: !47, file: !47, line: 253, type: !284, isLocal: false, isDefinition: false, flags: DIFlagPrototyped, isOptimized: false)
!284 = !DISubroutineType(types: !285)
!285 = !{!62, !75, !63, !97}
!286 = !DIImportedEntity(tag: DW_TAG_imported_declaration, scope: !287, entity: !288, line: 248)
!287 = !DINamespace(name: "__gnu_cxx", scope: null, file: !6, line: 255)
!288 = !DISubprogram(name: "wcstold", scope: !47, file: !47, line: 384, type: !289, isLocal: false, isDefinition: false, flags: DIFlagPrototyped, isOptimized: false)
!289 = !DISubroutineType(types: !290)
!290 = !{!291, !74, !223}
!291 = !DIBasicType(name: "long double", size: 64, align: 64, encoding: DW_ATE_float)
!292 = !DIImportedEntity(tag: DW_TAG_imported_declaration, scope: !287, entity: !293, line: 257)
!293 = !DISubprogram(name: "wcstoll", scope: !47, file: !47, line: 410, type: !294, isLocal: false, isDefinition: false, flags: DIFlagPrototyped, isOptimized: false)
!294 = !DISubroutineType(types: !295)
!295 = !{!296, !74, !223, !15}
!296 = !DIBasicType(name: "long long int", size: 64, align: 64, encoding: DW_ATE_signed)
!297 = !DIImportedEntity(tag: DW_TAG_imported_declaration, scope: !287, entity: !298, line: 258)
!298 = !DISubprogram(name: "wcstoull", scope: !47, file: !47, line: 417, type: !299, isLocal: false, isDefinition: false, flags: DIFlagPrototyped, isOptimized: false)
!299 = !DISubroutineType(types: !300)
!300 = !{!301, !74, !223, !15}
!301 = !DIBasicType(name: "long long unsigned int", size: 64, align: 64, encoding: DW_ATE_unsigned)
!302 = !DIImportedEntity(tag: DW_TAG_imported_declaration, scope: !5, entity: !288, line: 264)
!303 = !DIImportedEntity(tag: DW_TAG_imported_declaration, scope: !5, entity: !293, line: 265)
!304 = !DIImportedEntity(tag: DW_TAG_imported_declaration, scope: !5, entity: !298, line: 266)
!305 = !DIImportedEntity(tag: DW_TAG_imported_declaration, scope: !5, entity: !226, line: 280)
!306 = !DIImportedEntity(tag: DW_TAG_imported_declaration, scope: !5, entity: !151, line: 283)
!307 = !DIImportedEntity(tag: DW_TAG_imported_declaration, scope: !5, entity: !157, line: 286)
!308 = !DIImportedEntity(tag: DW_TAG_imported_declaration, scope: !5, entity: !165, line: 289)
!309 = !DIImportedEntity(tag: DW_TAG_imported_declaration, scope: !5, entity: !288, line: 293)
!310 = !DIImportedEntity(tag: DW_TAG_imported_declaration, scope: !5, entity: !293, line: 294)
!311 = !DIImportedEntity(tag: DW_TAG_imported_declaration, scope: !5, entity: !298, line: 295)
!312 = !DIImportedEntity(tag: DW_TAG_imported_declaration, scope: !5, entity: !313, line: 57)
!313 = distinct !DICompositeType(tag: DW_TAG_class_type, name: "exception_ptr", scope: !315, file: !314, line: 79, size: 32, align: 32, elements: !316, identifier: "_ZTSNSt15__exception_ptr13exception_ptrE")
!314 = !DIFile(filename: "/tools/Xilinx/SDK/2018.3/gnu/aarch32/lin/gcc-arm-linux-gnueabi/arm-linux-gnueabihf/include/c++/7.3.1/bits/exception_ptr.h", directory: "/home/steve/Graduate_Research/MLP/build/Pynq-Z1-pynqZ1")
!315 = !DINamespace(name: "__exception_ptr", scope: !5, file: !314, line: 52)
!316 = !{!317, !318, !322, !325, !326, !331, !332, !336, !341, !345, !349, !352, !353, !356, !359}
!317 = !DIDerivedType(tag: DW_TAG_member, name: "_M_exception_object", scope: !313, file: !314, line: 81, baseType: !149, size: 32, align: 32)
!318 = !DISubprogram(name: "exception_ptr", scope: !313, file: !314, line: 83, type: !319, isLocal: false, isDefinition: false, scopeLine: 83, flags: DIFlagExplicit | DIFlagPrototyped, isOptimized: false)
!319 = !DISubroutineType(types: !320)
!320 = !{null, !321, !149}
!321 = !DIDerivedType(tag: DW_TAG_pointer_type, baseType: !313, size: 32, align: 32, flags: DIFlagArtificial | DIFlagObjectPointer)
!322 = !DISubprogram(name: "_M_addref", linkageName: "_ZNSt15__exception_ptr13exception_ptr9_M_addrefEv", scope: !313, file: !314, line: 85, type: !323, isLocal: false, isDefinition: false, scopeLine: 85, flags: DIFlagPrototyped, isOptimized: false)
!323 = !DISubroutineType(types: !324)
!324 = !{null, !321}
!325 = !DISubprogram(name: "_M_release", linkageName: "_ZNSt15__exception_ptr13exception_ptr10_M_releaseEv", scope: !313, file: !314, line: 86, type: !323, isLocal: false, isDefinition: false, scopeLine: 86, flags: DIFlagPrototyped, isOptimized: false)
!326 = !DISubprogram(name: "_M_get", linkageName: "_ZNKSt15__exception_ptr13exception_ptr6_M_getEv", scope: !313, file: !314, line: 88, type: !327, isLocal: false, isDefinition: false, scopeLine: 88, flags: DIFlagPrototyped, isOptimized: false)
!327 = !DISubroutineType(types: !328)
!328 = !{!149, !329}
!329 = !DIDerivedType(tag: DW_TAG_pointer_type, baseType: !330, size: 32, align: 32, flags: DIFlagArtificial | DIFlagObjectPointer)
!330 = !DIDerivedType(tag: DW_TAG_const_type, baseType: !313)
!331 = !DISubprogram(name: "exception_ptr", scope: !313, file: !314, line: 96, type: !323, isLocal: false, isDefinition: false, scopeLine: 96, flags: DIFlagPublic | DIFlagPrototyped, isOptimized: false)
!332 = !DISubprogram(name: "exception_ptr", scope: !313, file: !314, line: 98, type: !333, isLocal: false, isDefinition: false, scopeLine: 98, flags: DIFlagPublic | DIFlagPrototyped, isOptimized: false)
!333 = !DISubroutineType(types: !334)
!334 = !{null, !321, !335}
!335 = !DIDerivedType(tag: DW_TAG_reference_type, baseType: !330, size: 32, align: 32)
!336 = !DISubprogram(name: "exception_ptr", scope: !313, file: !314, line: 101, type: !337, isLocal: false, isDefinition: false, scopeLine: 101, flags: DIFlagPublic | DIFlagPrototyped, isOptimized: false)
!337 = !DISubroutineType(types: !338)
!338 = !{null, !321, !339}
!339 = !DIDerivedType(tag: DW_TAG_typedef, name: "nullptr_t", scope: !5, file: !6, line: 235, baseType: !340)
!340 = !DIBasicType(tag: DW_TAG_unspecified_type, name: "decltype(nullptr)")
!341 = !DISubprogram(name: "exception_ptr", scope: !313, file: !314, line: 105, type: !342, isLocal: false, isDefinition: false, scopeLine: 105, flags: DIFlagPublic | DIFlagPrototyped, isOptimized: false)
!342 = !DISubroutineType(types: !343)
!343 = !{null, !321, !344}
!344 = !DIDerivedType(tag: DW_TAG_rvalue_reference_type, baseType: !313, size: 32, align: 32)
!345 = !DISubprogram(name: "operator=", linkageName: "_ZNSt15__exception_ptr13exception_ptraSERKS0_", scope: !313, file: !314, line: 118, type: !346, isLocal: false, isDefinition: false, scopeLine: 118, flags: DIFlagPublic | DIFlagPrototyped, isOptimized: false)
!346 = !DISubroutineType(types: !347)
!347 = !{!348, !321, !335}
!348 = !DIDerivedType(tag: DW_TAG_reference_type, baseType: !313, size: 32, align: 32)
!349 = !DISubprogram(name: "operator=", linkageName: "_ZNSt15__exception_ptr13exception_ptraSEOS0_", scope: !313, file: !314, line: 122, type: !350, isLocal: false, isDefinition: false, scopeLine: 122, flags: DIFlagPublic | DIFlagPrototyped, isOptimized: false)
!350 = !DISubroutineType(types: !351)
!351 = !{!348, !321, !344}
!352 = !DISubprogram(name: "~exception_ptr", scope: !313, file: !314, line: 129, type: !323, isLocal: false, isDefinition: false, scopeLine: 129, flags: DIFlagPublic | DIFlagPrototyped, isOptimized: false)
!353 = !DISubprogram(name: "swap", linkageName: "_ZNSt15__exception_ptr13exception_ptr4swapERS0_", scope: !313, file: !314, line: 132, type: !354, isLocal: false, isDefinition: false, scopeLine: 132, flags: DIFlagPublic | DIFlagPrototyped, isOptimized: false)
!354 = !DISubroutineType(types: !355)
!355 = !{null, !321, !348}
!356 = !DISubprogram(name: "operator bool", linkageName: "_ZNKSt15__exception_ptr13exception_ptrcvbEv", scope: !313, file: !314, line: 144, type: !357, isLocal: false, isDefinition: false, scopeLine: 144, flags: DIFlagPublic | DIFlagExplicit | DIFlagPrototyped, isOptimized: false)
!357 = !DISubroutineType(types: !358)
!358 = !{!17, !329}
!359 = !DISubprogram(name: "__cxa_exception_type", linkageName: "_ZNKSt15__exception_ptr13exception_ptr20__cxa_exception_typeEv", scope: !313, file: !314, line: 153, type: !360, isLocal: false, isDefinition: false, scopeLine: 153, flags: DIFlagPublic | DIFlagPrototyped, isOptimized: false)
!360 = !DISubroutineType(types: !361)
!361 = !{!362, !329}
!362 = !DIDerivedType(tag: DW_TAG_pointer_type, baseType: !363, size: 32, align: 32)
!363 = !DIDerivedType(tag: DW_TAG_const_type, baseType: !364)
!364 = !DICompositeType(tag: DW_TAG_class_type, name: "type_info", scope: !5, file: !365, line: 88, size: 64, align: 32, flags: DIFlagFwdDecl, identifier: "_ZTSSt9type_info")
!365 = !DIFile(filename: "/tools/Xilinx/SDK/2018.3/gnu/aarch32/lin/gcc-arm-linux-gnueabi/arm-linux-gnueabihf/include/c++/7.3.1/typeinfo", directory: "/home/steve/Graduate_Research/MLP/build/Pynq-Z1-pynqZ1")
!366 = !DIImportedEntity(tag: DW_TAG_imported_declaration, scope: !315, entity: !367, line: 73)
!367 = !DISubprogram(name: "rethrow_exception", linkageName: "_ZSt17rethrow_exceptionNSt15__exception_ptr13exception_ptrE", scope: !5, file: !314, line: 69, type: !368, isLocal: false, isDefinition: false, flags: DIFlagPrototyped, isOptimized: false)
!368 = !DISubroutineType(types: !369)
!369 = !{null, !313}
!370 = !DIImportedEntity(tag: DW_TAG_imported_module, scope: !371, entity: !373, line: 58)
!371 = !DINamespace(name: "__gnu_debug", scope: null, file: !372, line: 56)
!372 = !DIFile(filename: "/tools/Xilinx/SDK/2018.3/gnu/aarch32/lin/gcc-arm-linux-gnueabi/arm-linux-gnueabihf/include/c++/7.3.1/debug/debug.h", directory: "/home/steve/Graduate_Research/MLP/build/Pynq-Z1-pynqZ1")
!373 = !DINamespace(name: "__debug", scope: !5, file: !372, line: 50)
!374 = !DIImportedEntity(tag: DW_TAG_imported_declaration, scope: !5, entity: !375, line: 48)
!375 = !DIDerivedType(tag: DW_TAG_typedef, name: "int8_t", file: !376, line: 24, baseType: !377)
!376 = !DIFile(filename: "/tools/Xilinx/SDK/2018.3/gnu/aarch32/lin/gcc-arm-linux-gnueabi/arm-linux-gnueabihf/libc/usr/include/bits/stdint-intn.h", directory: "/home/steve/Graduate_Research/MLP/build/Pynq-Z1-pynqZ1")
!377 = !DIDerivedType(tag: DW_TAG_typedef, name: "__int8_t", file: !378, line: 36, baseType: !379)
!378 = !DIFile(filename: "/tools/Xilinx/SDK/2018.3/gnu/aarch32/lin/gcc-arm-linux-gnueabi/arm-linux-gnueabihf/libc/usr/include/bits/types.h", directory: "/home/steve/Graduate_Research/MLP/build/Pynq-Z1-pynqZ1")
!379 = !DIBasicType(name: "signed char", size: 8, align: 8, encoding: DW_ATE_signed_char)
!380 = !DIImportedEntity(tag: DW_TAG_imported_declaration, scope: !5, entity: !381, line: 49)
!381 = !DIDerivedType(tag: DW_TAG_typedef, name: "int16_t", file: !376, line: 25, baseType: !382)
!382 = !DIDerivedType(tag: DW_TAG_typedef, name: "__int16_t", file: !378, line: 38, baseType: !383)
!383 = !DIBasicType(name: "short", size: 16, align: 16, encoding: DW_ATE_signed)
!384 = !DIImportedEntity(tag: DW_TAG_imported_declaration, scope: !5, entity: !385, line: 50)
!385 = !DIDerivedType(tag: DW_TAG_typedef, name: "int32_t", file: !376, line: 26, baseType: !386)
!386 = !DIDerivedType(tag: DW_TAG_typedef, name: "__int32_t", file: !378, line: 40, baseType: !15)
!387 = !DIImportedEntity(tag: DW_TAG_imported_declaration, scope: !5, entity: !388, line: 51)
!388 = !DIDerivedType(tag: DW_TAG_typedef, name: "int64_t", file: !376, line: 27, baseType: !389)
!389 = !DIDerivedType(tag: DW_TAG_typedef, name: "__int64_t", file: !378, line: 46, baseType: !296)
!390 = !DIImportedEntity(tag: DW_TAG_imported_declaration, scope: !5, entity: !391, line: 53)
!391 = !DIDerivedType(tag: DW_TAG_typedef, name: "int_fast8_t", file: !392, line: 68, baseType: !379)
!392 = !DIFile(filename: "/tools/Xilinx/SDK/2018.3/gnu/aarch32/lin/gcc-arm-linux-gnueabi/arm-linux-gnueabihf/libc/usr/include/stdint.h", directory: "/home/steve/Graduate_Research/MLP/build/Pynq-Z1-pynqZ1")
!393 = !DIImportedEntity(tag: DW_TAG_imported_declaration, scope: !5, entity: !394, line: 54)
!394 = !DIDerivedType(tag: DW_TAG_typedef, name: "int_fast16_t", file: !392, line: 74, baseType: !15)
!395 = !DIImportedEntity(tag: DW_TAG_imported_declaration, scope: !5, entity: !396, line: 55)
!396 = !DIDerivedType(tag: DW_TAG_typedef, name: "int_fast32_t", file: !392, line: 75, baseType: !15)
!397 = !DIImportedEntity(tag: DW_TAG_imported_declaration, scope: !5, entity: !398, line: 56)
!398 = !DIDerivedType(tag: DW_TAG_typedef, name: "int_fast64_t", file: !392, line: 77, baseType: !296)
!399 = !DIImportedEntity(tag: DW_TAG_imported_declaration, scope: !5, entity: !400, line: 58)
!400 = !DIDerivedType(tag: DW_TAG_typedef, name: "int_least8_t", file: !392, line: 43, baseType: !379)
!401 = !DIImportedEntity(tag: DW_TAG_imported_declaration, scope: !5, entity: !402, line: 59)
!402 = !DIDerivedType(tag: DW_TAG_typedef, name: "int_least16_t", file: !392, line: 44, baseType: !383)
!403 = !DIImportedEntity(tag: DW_TAG_imported_declaration, scope: !5, entity: !404, line: 60)
!404 = !DIDerivedType(tag: DW_TAG_typedef, name: "int_least32_t", file: !392, line: 45, baseType: !15)
!405 = !DIImportedEntity(tag: DW_TAG_imported_declaration, scope: !5, entity: !406, line: 61)
!406 = !DIDerivedType(tag: DW_TAG_typedef, name: "int_least64_t", file: !392, line: 50, baseType: !296)
!407 = !DIImportedEntity(tag: DW_TAG_imported_declaration, scope: !5, entity: !408, line: 63)
!408 = !DIDerivedType(tag: DW_TAG_typedef, name: "intmax_t", file: !392, line: 111, baseType: !409)
!409 = !DIDerivedType(tag: DW_TAG_typedef, name: "__intmax_t", file: !378, line: 64, baseType: !296)
!410 = !DIImportedEntity(tag: DW_TAG_imported_declaration, scope: !5, entity: !411, line: 64)
!411 = !DIDerivedType(tag: DW_TAG_typedef, name: "intptr_t", file: !392, line: 103, baseType: !15)
!412 = !DIImportedEntity(tag: DW_TAG_imported_declaration, scope: !5, entity: !413, line: 66)
!413 = !DIDerivedType(tag: DW_TAG_typedef, name: "uint8_t", file: !414, line: 24, baseType: !415)
!414 = !DIFile(filename: "/tools/Xilinx/SDK/2018.3/gnu/aarch32/lin/gcc-arm-linux-gnueabi/arm-linux-gnueabihf/libc/usr/include/bits/stdint-uintn.h", directory: "/home/steve/Graduate_Research/MLP/build/Pynq-Z1-pynqZ1")
!415 = !DIDerivedType(tag: DW_TAG_typedef, name: "__uint8_t", file: !378, line: 37, baseType: !416)
!416 = !DIBasicType(name: "unsigned char", size: 8, align: 8, encoding: DW_ATE_unsigned_char)
!417 = !DIImportedEntity(tag: DW_TAG_imported_declaration, scope: !5, entity: !418, line: 67)
!418 = !DIDerivedType(tag: DW_TAG_typedef, name: "uint16_t", file: !414, line: 25, baseType: !419)
!419 = !DIDerivedType(tag: DW_TAG_typedef, name: "__uint16_t", file: !378, line: 39, baseType: !420)
!420 = !DIBasicType(name: "unsigned short", size: 16, align: 16, encoding: DW_ATE_unsigned)
!421 = !DIImportedEntity(tag: DW_TAG_imported_declaration, scope: !5, entity: !422, line: 68)
!422 = !DIDerivedType(tag: DW_TAG_typedef, name: "uint32_t", file: !414, line: 26, baseType: !423)
!423 = !DIDerivedType(tag: DW_TAG_typedef, name: "__uint32_t", file: !378, line: 41, baseType: !36)
!424 = !DIImportedEntity(tag: DW_TAG_imported_declaration, scope: !5, entity: !425, line: 69)
!425 = !DIDerivedType(tag: DW_TAG_typedef, name: "uint64_t", file: !414, line: 27, baseType: !426)
!426 = !DIDerivedType(tag: DW_TAG_typedef, name: "__uint64_t", file: !378, line: 47, baseType: !301)
!427 = !DIImportedEntity(tag: DW_TAG_imported_declaration, scope: !5, entity: !428, line: 71)
!428 = !DIDerivedType(tag: DW_TAG_typedef, name: "uint_fast8_t", file: !392, line: 81, baseType: !416)
!429 = !DIImportedEntity(tag: DW_TAG_imported_declaration, scope: !5, entity: !430, line: 72)
!430 = !DIDerivedType(tag: DW_TAG_typedef, name: "uint_fast16_t", file: !392, line: 87, baseType: !36)
!431 = !DIImportedEntity(tag: DW_TAG_imported_declaration, scope: !5, entity: !432, line: 73)
!432 = !DIDerivedType(tag: DW_TAG_typedef, name: "uint_fast32_t", file: !392, line: 88, baseType: !36)
!433 = !DIImportedEntity(tag: DW_TAG_imported_declaration, scope: !5, entity: !434, line: 74)
!434 = !DIDerivedType(tag: DW_TAG_typedef, name: "uint_fast64_t", file: !392, line: 90, baseType: !301)
!435 = !DIImportedEntity(tag: DW_TAG_imported_declaration, scope: !5, entity: !436, line: 76)
!436 = !DIDerivedType(tag: DW_TAG_typedef, name: "uint_least8_t", file: !392, line: 54, baseType: !416)
!437 = !DIImportedEntity(tag: DW_TAG_imported_declaration, scope: !5, entity: !438, line: 77)
!438 = !DIDerivedType(tag: DW_TAG_typedef, name: "uint_least16_t", file: !392, line: 55, baseType: !420)
!439 = !DIImportedEntity(tag: DW_TAG_imported_declaration, scope: !5, entity: !440, line: 78)
!440 = !DIDerivedType(tag: DW_TAG_typedef, name: "uint_least32_t", file: !392, line: 56, baseType: !36)
!441 = !DIImportedEntity(tag: DW_TAG_imported_declaration, scope: !5, entity: !442, line: 79)
!442 = !DIDerivedType(tag: DW_TAG_typedef, name: "uint_least64_t", file: !392, line: 61, baseType: !301)
!443 = !DIImportedEntity(tag: DW_TAG_imported_declaration, scope: !5, entity: !444, line: 81)
!444 = !DIDerivedType(tag: DW_TAG_typedef, name: "uintmax_t", file: !392, line: 112, baseType: !445)
!445 = !DIDerivedType(tag: DW_TAG_typedef, name: "__uintmax_t", file: !378, line: 65, baseType: !301)
!446 = !DIImportedEntity(tag: DW_TAG_imported_declaration, scope: !5, entity: !447, line: 82)
!447 = !DIDerivedType(tag: DW_TAG_typedef, name: "uintptr_t", file: !392, line: 106, baseType: !36)
!448 = !DIImportedEntity(tag: DW_TAG_imported_declaration, scope: !5, entity: !449, line: 53)
!449 = !DICompositeType(tag: DW_TAG_structure_type, name: "lconv", file: !450, line: 51, size: 448, align: 32, flags: DIFlagFwdDecl, identifier: "_ZTS5lconv")
!450 = !DIFile(filename: "/tools/Xilinx/SDK/2018.3/gnu/aarch32/lin/gcc-arm-linux-gnueabi/arm-linux-gnueabihf/libc/usr/include/locale.h", directory: "/home/steve/Graduate_Research/MLP/build/Pynq-Z1-pynqZ1")
!451 = !DIImportedEntity(tag: DW_TAG_imported_declaration, scope: !5, entity: !452, line: 54)
!452 = !DISubprogram(name: "setlocale", scope: !450, file: !450, line: 122, type: !453, isLocal: false, isDefinition: false, flags: DIFlagPrototyped, isOptimized: false)
!453 = !DISubroutineType(types: !454)
!454 = !{!171, !15, !100}
!455 = !DIImportedEntity(tag: DW_TAG_imported_declaration, scope: !5, entity: !456, line: 55)
!456 = !DISubprogram(name: "localeconv", scope: !450, file: !450, line: 125, type: !457, isLocal: false, isDefinition: false, flags: DIFlagPrototyped, isOptimized: false)
!457 = !DISubroutineType(types: !458)
!458 = !{!459}
!459 = !DIDerivedType(tag: DW_TAG_pointer_type, baseType: !449, size: 32, align: 32)
!460 = !DIImportedEntity(tag: DW_TAG_imported_declaration, scope: !5, entity: !461, line: 64)
!461 = !DISubprogram(name: "isalnum", scope: !462, file: !462, line: 108, type: !463, isLocal: false, isDefinition: false, flags: DIFlagPrototyped, isOptimized: false)
!462 = !DIFile(filename: "/tools/Xilinx/SDK/2018.3/gnu/aarch32/lin/gcc-arm-linux-gnueabi/arm-linux-gnueabihf/libc/usr/include/ctype.h", directory: "/home/steve/Graduate_Research/MLP/build/Pynq-Z1-pynqZ1")
!463 = !DISubroutineType(types: !464)
!464 = !{!15, !15}
!465 = !DIImportedEntity(tag: DW_TAG_imported_declaration, scope: !5, entity: !466, line: 65)
!466 = !DISubprogram(name: "isalpha", scope: !462, file: !462, line: 109, type: !463, isLocal: false, isDefinition: false, flags: DIFlagPrototyped, isOptimized: false)
!467 = !DIImportedEntity(tag: DW_TAG_imported_declaration, scope: !5, entity: !468, line: 66)
!468 = !DISubprogram(name: "iscntrl", scope: !462, file: !462, line: 110, type: !463, isLocal: false, isDefinition: false, flags: DIFlagPrototyped, isOptimized: false)
!469 = !DIImportedEntity(tag: DW_TAG_imported_declaration, scope: !5, entity: !470, line: 67)
!470 = !DISubprogram(name: "isdigit", scope: !462, file: !462, line: 111, type: !463, isLocal: false, isDefinition: false, flags: DIFlagPrototyped, isOptimized: false)
!471 = !DIImportedEntity(tag: DW_TAG_imported_declaration, scope: !5, entity: !472, line: 68)
!472 = !DISubprogram(name: "isgraph", scope: !462, file: !462, line: 113, type: !463, isLocal: false, isDefinition: false, flags: DIFlagPrototyped, isOptimized: false)
!473 = !DIImportedEntity(tag: DW_TAG_imported_declaration, scope: !5, entity: !474, line: 69)
!474 = !DISubprogram(name: "islower", scope: !462, file: !462, line: 112, type: !463, isLocal: false, isDefinition: false, flags: DIFlagPrototyped, isOptimized: false)
!475 = !DIImportedEntity(tag: DW_TAG_imported_declaration, scope: !5, entity: !476, line: 70)
!476 = !DISubprogram(name: "isprint", scope: !462, file: !462, line: 114, type: !463, isLocal: false, isDefinition: false, flags: DIFlagPrototyped, isOptimized: false)
!477 = !DIImportedEntity(tag: DW_TAG_imported_declaration, scope: !5, entity: !478, line: 71)
!478 = !DISubprogram(name: "ispunct", scope: !462, file: !462, line: 115, type: !463, isLocal: false, isDefinition: false, flags: DIFlagPrototyped, isOptimized: false)
!479 = !DIImportedEntity(tag: DW_TAG_imported_declaration, scope: !5, entity: !480, line: 72)
!480 = !DISubprogram(name: "isspace", scope: !462, file: !462, line: 116, type: !463, isLocal: false, isDefinition: false, flags: DIFlagPrototyped, isOptimized: false)
!481 = !DIImportedEntity(tag: DW_TAG_imported_declaration, scope: !5, entity: !482, line: 73)
!482 = !DISubprogram(name: "isupper", scope: !462, file: !462, line: 117, type: !463, isLocal: false, isDefinition: false, flags: DIFlagPrototyped, isOptimized: false)
!483 = !DIImportedEntity(tag: DW_TAG_imported_declaration, scope: !5, entity: !484, line: 74)
!484 = !DISubprogram(name: "isxdigit", scope: !462, file: !462, line: 118, type: !463, isLocal: false, isDefinition: false, flags: DIFlagPrototyped, isOptimized: false)
!485 = !DIImportedEntity(tag: DW_TAG_imported_declaration, scope: !5, entity: !486, line: 75)
!486 = !DISubprogram(name: "tolower", scope: !462, file: !462, line: 122, type: !463, isLocal: false, isDefinition: false, flags: DIFlagPrototyped, isOptimized: false)
!487 = !DIImportedEntity(tag: DW_TAG_imported_declaration, scope: !5, entity: !488, line: 76)
!488 = !DISubprogram(name: "toupper", scope: !462, file: !462, line: 125, type: !463, isLocal: false, isDefinition: false, flags: DIFlagPrototyped, isOptimized: false)
!489 = !DIImportedEntity(tag: DW_TAG_imported_declaration, scope: !5, entity: !490, line: 87)
!490 = !DISubprogram(name: "isblank", scope: !462, file: !462, line: 130, type: !463, isLocal: false, isDefinition: false, flags: DIFlagPrototyped, isOptimized: false)
!491 = !DIImportedEntity(tag: DW_TAG_imported_declaration, scope: !287, entity: !492, line: 44)
!492 = !DIDerivedType(tag: DW_TAG_typedef, name: "size_t", scope: !5, file: !6, line: 231, baseType: !36)
!493 = !DIImportedEntity(tag: DW_TAG_imported_declaration, scope: !287, entity: !494, line: 45)
!494 = !DIDerivedType(tag: DW_TAG_typedef, name: "ptrdiff_t", scope: !5, file: !6, line: 232, baseType: !15)
!495 = !DIImportedEntity(tag: DW_TAG_imported_declaration, scope: !5, entity: !496, line: 52)
!496 = !DISubprogram(name: "abs", scope: !497, file: !497, line: 722, type: !463, isLocal: false, isDefinition: false, flags: DIFlagPrototyped, isOptimized: false)
!497 = !DIFile(filename: "/tools/Xilinx/SDK/2018.3/gnu/aarch32/lin/gcc-arm-linux-gnueabi/arm-linux-gnueabihf/libc/usr/include/stdlib.h", directory: "/home/steve/Graduate_Research/MLP/build/Pynq-Z1-pynqZ1")
!498 = !DIImportedEntity(tag: DW_TAG_imported_declaration, scope: !5, entity: !499, line: 127)
!499 = !DIDerivedType(tag: DW_TAG_typedef, name: "div_t", file: !497, line: 62, baseType: !500)
!500 = !DICompositeType(tag: DW_TAG_structure_type, file: !497, line: 58, size: 64, align: 32, flags: DIFlagFwdDecl, identifier: "_ZTS5div_t")
!501 = !DIImportedEntity(tag: DW_TAG_imported_declaration, scope: !5, entity: !502, line: 128)
!502 = !DIDerivedType(tag: DW_TAG_typedef, name: "ldiv_t", file: !497, line: 70, baseType: !503)
!503 = distinct !DICompositeType(tag: DW_TAG_structure_type, file: !497, line: 66, size: 64, align: 32, elements: !504, identifier: "_ZTS6ldiv_t")
!504 = !{!505, !506}
!505 = !DIDerivedType(tag: DW_TAG_member, name: "quot", scope: !503, file: !497, line: 68, baseType: !238, size: 32, align: 32)
!506 = !DIDerivedType(tag: DW_TAG_member, name: "rem", scope: !503, file: !497, line: 69, baseType: !238, size: 32, align: 32, offset: 32)
!507 = !DIImportedEntity(tag: DW_TAG_imported_declaration, scope: !5, entity: !508, line: 130)
!508 = !DISubprogram(name: "abort", scope: !497, file: !497, line: 473, type: !509, isLocal: false, isDefinition: false, flags: DIFlagPrototyped, isOptimized: false)
!509 = !DISubroutineType(types: !510)
!510 = !{null}
!511 = !DIImportedEntity(tag: DW_TAG_imported_declaration, scope: !5, entity: !512, line: 134)
!512 = !DISubprogram(name: "atexit", scope: !497, file: !497, line: 477, type: !513, isLocal: false, isDefinition: false, flags: DIFlagPrototyped, isOptimized: false)
!513 = !DISubroutineType(types: !514)
!514 = !{!15, !515}
!515 = !DIDerivedType(tag: DW_TAG_pointer_type, baseType: !509, size: 32, align: 32)
!516 = !DIImportedEntity(tag: DW_TAG_imported_declaration, scope: !5, entity: !517, line: 137)
!517 = !DISubprogram(name: "at_quick_exit", scope: !497, file: !497, line: 482, type: !513, isLocal: false, isDefinition: false, flags: DIFlagPrototyped, isOptimized: false)
!518 = !DIImportedEntity(tag: DW_TAG_imported_declaration, scope: !5, entity: !519, line: 140)
!519 = !DISubprogram(name: "atof", scope: !497, file: !497, line: 101, type: !520, isLocal: false, isDefinition: false, flags: DIFlagPrototyped, isOptimized: false)
!520 = !DISubroutineType(types: !521)
!521 = !{!222, !100}
!522 = !DIImportedEntity(tag: DW_TAG_imported_declaration, scope: !5, entity: !523, line: 141)
!523 = !DISubprogram(name: "atoi", scope: !497, file: !497, line: 104, type: !524, isLocal: false, isDefinition: false, flags: DIFlagPrototyped, isOptimized: false)
!524 = !DISubroutineType(types: !525)
!525 = !{!15, !100}
!526 = !DIImportedEntity(tag: DW_TAG_imported_declaration, scope: !5, entity: !527, line: 142)
!527 = !DISubprogram(name: "atol", scope: !497, file: !497, line: 107, type: !528, isLocal: false, isDefinition: false, flags: DIFlagPrototyped, isOptimized: false)
!528 = !DISubroutineType(types: !529)
!529 = !{!238, !100}
!530 = !DIImportedEntity(tag: DW_TAG_imported_declaration, scope: !5, entity: !531, line: 143)
!531 = !DISubprogram(name: "bsearch", scope: !497, file: !497, line: 702, type: !532, isLocal: false, isDefinition: false, flags: DIFlagPrototyped, isOptimized: false)
!532 = !DISubroutineType(types: !533)
!533 = !{!149, !534, !534, !97, !97, !536}
!534 = !DIDerivedType(tag: DW_TAG_pointer_type, baseType: !535, size: 32, align: 32)
!535 = !DIDerivedType(tag: DW_TAG_const_type, baseType: null)
!536 = !DIDerivedType(tag: DW_TAG_typedef, name: "__compar_fn_t", file: !497, line: 690, baseType: !537)
!537 = !DIDerivedType(tag: DW_TAG_pointer_type, baseType: !538, size: 32, align: 32)
!538 = !DISubroutineType(types: !539)
!539 = !{!15, !534, !534}
!540 = !DIImportedEntity(tag: DW_TAG_imported_declaration, scope: !5, entity: !541, line: 144)
!541 = !DISubprogram(name: "calloc", scope: !497, file: !497, line: 426, type: !542, isLocal: false, isDefinition: false, flags: DIFlagPrototyped, isOptimized: false)
!542 = !DISubroutineType(types: !543)
!543 = !{!149, !97, !97}
!544 = !DIImportedEntity(tag: DW_TAG_imported_declaration, scope: !5, entity: !545, line: 145)
!545 = !DISubprogram(name: "div", scope: !497, file: !497, line: 734, type: !546, isLocal: false, isDefinition: false, flags: DIFlagPrototyped, isOptimized: false)
!546 = !DISubroutineType(types: !547)
!547 = !{!499, !15, !15}
!548 = !DIImportedEntity(tag: DW_TAG_imported_declaration, scope: !5, entity: !549, line: 146)
!549 = !DISubprogram(name: "exit", scope: !497, file: !497, line: 499, type: !550, isLocal: false, isDefinition: false, flags: DIFlagPrototyped, isOptimized: false)
!550 = !DISubroutineType(types: !551)
!551 = !{null, !15}
!552 = !DIImportedEntity(tag: DW_TAG_imported_declaration, scope: !5, entity: !553, line: 147)
!553 = !DISubprogram(name: "free", scope: !497, file: !497, line: 448, type: !554, isLocal: false, isDefinition: false, flags: DIFlagPrototyped, isOptimized: false)
!554 = !DISubroutineType(types: !555)
!555 = !{null, !149}
!556 = !DIImportedEntity(tag: DW_TAG_imported_declaration, scope: !5, entity: !557, line: 148)
!557 = !DISubprogram(name: "getenv", scope: !497, file: !497, line: 516, type: !558, isLocal: false, isDefinition: false, flags: DIFlagPrototyped, isOptimized: false)
!558 = !DISubroutineType(types: !559)
!559 = !{!171, !100}
!560 = !DIImportedEntity(tag: DW_TAG_imported_declaration, scope: !5, entity: !561, line: 149)
!561 = !DISubprogram(name: "labs", scope: !497, file: !497, line: 723, type: !562, isLocal: false, isDefinition: false, flags: DIFlagPrototyped, isOptimized: false)
!562 = !DISubroutineType(types: !563)
!563 = !{!238, !238}
!564 = !DIImportedEntity(tag: DW_TAG_imported_declaration, scope: !5, entity: !565, line: 150)
!565 = !DISubprogram(name: "ldiv", scope: !497, file: !497, line: 736, type: !566, isLocal: false, isDefinition: false, flags: DIFlagPrototyped, isOptimized: false)
!566 = !DISubroutineType(types: !567)
!567 = !{!502, !238, !238}
!568 = !DIImportedEntity(tag: DW_TAG_imported_declaration, scope: !5, entity: !569, line: 151)
!569 = !DISubprogram(name: "malloc", scope: !497, file: !497, line: 424, type: !570, isLocal: false, isDefinition: false, flags: DIFlagPrototyped, isOptimized: false)
!570 = !DISubroutineType(types: !571)
!571 = !{!149, !97}
!572 = !DIImportedEntity(tag: DW_TAG_imported_declaration, scope: !5, entity: !573, line: 153)
!573 = !DISubprogram(name: "mblen", scope: !497, file: !497, line: 804, type: !574, isLocal: false, isDefinition: false, flags: DIFlagPrototyped, isOptimized: false)
!574 = !DISubroutineType(types: !575)
!575 = !{!15, !100, !97}
!576 = !DIImportedEntity(tag: DW_TAG_imported_declaration, scope: !5, entity: !577, line: 154)
!577 = !DISubprogram(name: "mbstowcs", scope: !497, file: !497, line: 815, type: !578, isLocal: false, isDefinition: false, flags: DIFlagPrototyped, isOptimized: false)
!578 = !DISubroutineType(types: !579)
!579 = !{!97, !64, !99, !97}
!580 = !DIImportedEntity(tag: DW_TAG_imported_declaration, scope: !5, entity: !581, line: 155)
!581 = !DISubprogram(name: "mbtowc", scope: !497, file: !497, line: 807, type: !582, isLocal: false, isDefinition: false, flags: DIFlagPrototyped, isOptimized: false)
!582 = !DISubroutineType(types: !583)
!583 = !{!15, !64, !99, !97}
!584 = !DIImportedEntity(tag: DW_TAG_imported_declaration, scope: !5, entity: !585, line: 157)
!585 = !DISubprogram(name: "qsort", scope: !497, file: !497, line: 712, type: !586, isLocal: false, isDefinition: false, flags: DIFlagPrototyped, isOptimized: false)
!586 = !DISubroutineType(types: !587)
!587 = !{null, !149, !97, !97, !536}
!588 = !DIImportedEntity(tag: DW_TAG_imported_declaration, scope: !5, entity: !589, line: 160)
!589 = !DISubprogram(name: "quick_exit", scope: !497, file: !497, line: 505, type: !550, isLocal: false, isDefinition: false, flags: DIFlagPrototyped, isOptimized: false)
!590 = !DIImportedEntity(tag: DW_TAG_imported_declaration, scope: !5, entity: !591, line: 163)
!591 = !DISubprogram(name: "rand", scope: !497, file: !497, line: 338, type: !592, isLocal: false, isDefinition: false, flags: DIFlagPrototyped, isOptimized: false)
!592 = !DISubroutineType(types: !593)
!593 = !{!15}
!594 = !DIImportedEntity(tag: DW_TAG_imported_declaration, scope: !5, entity: !595, line: 164)
!595 = !DISubprogram(name: "realloc", scope: !497, file: !497, line: 434, type: !596, isLocal: false, isDefinition: false, flags: DIFlagPrototyped, isOptimized: false)
!596 = !DISubroutineType(types: !597)
!597 = !{!149, !149, !97}
!598 = !DIImportedEntity(tag: DW_TAG_imported_declaration, scope: !5, entity: !599, line: 165)
!599 = !DISubprogram(name: "srand", scope: !497, file: !497, line: 340, type: !600, isLocal: false, isDefinition: false, flags: DIFlagPrototyped, isOptimized: false)
!600 = !DISubroutineType(types: !601)
!601 = !{null, !36}
!602 = !DIImportedEntity(tag: DW_TAG_imported_declaration, scope: !5, entity: !603, line: 166)
!603 = !DISubprogram(name: "strtod", scope: !497, file: !497, line: 117, type: !604, isLocal: false, isDefinition: false, flags: DIFlagPrototyped, isOptimized: false)
!604 = !DISubroutineType(types: !605)
!605 = !{!222, !99, !606}
!606 = !DIDerivedType(tag: DW_TAG_restrict_type, baseType: !607)
!607 = !DIDerivedType(tag: DW_TAG_pointer_type, baseType: !171, size: 32, align: 32)
!608 = !DIImportedEntity(tag: DW_TAG_imported_declaration, scope: !5, entity: !609, line: 167)
!609 = !DISubprogram(name: "strtol", scope: !497, file: !497, line: 139, type: !610, isLocal: false, isDefinition: false, flags: DIFlagPrototyped, isOptimized: false)
!610 = !DISubroutineType(types: !611)
!611 = !{!238, !99, !606, !15}
!612 = !DIImportedEntity(tag: DW_TAG_imported_declaration, scope: !5, entity: !613, line: 168)
!613 = !DISubprogram(name: "strtoul", scope: !497, file: !497, line: 143, type: !614, isLocal: false, isDefinition: false, flags: DIFlagPrototyped, isOptimized: false)
!614 = !DISubroutineType(types: !615)
!615 = !{!243, !99, !606, !15}
!616 = !DIImportedEntity(tag: DW_TAG_imported_declaration, scope: !5, entity: !617, line: 169)
!617 = !DISubprogram(name: "system", scope: !497, file: !497, line: 666, type: !524, isLocal: false, isDefinition: false, flags: DIFlagPrototyped, isOptimized: false)
!618 = !DIImportedEntity(tag: DW_TAG_imported_declaration, scope: !5, entity: !619, line: 171)
!619 = !DISubprogram(name: "wcstombs", scope: !497, file: !497, line: 818, type: !620, isLocal: false, isDefinition: false, flags: DIFlagPrototyped, isOptimized: false)
!620 = !DISubroutineType(types: !621)
!621 = !{!97, !170, !74, !97}
!622 = !DIImportedEntity(tag: DW_TAG_imported_declaration, scope: !5, entity: !623, line: 172)
!623 = !DISubprogram(name: "wctomb", scope: !497, file: !497, line: 811, type: !624, isLocal: false, isDefinition: false, flags: DIFlagPrototyped, isOptimized: false)
!624 = !DISubroutineType(types: !625)
!625 = !{!15, !171, !63}
!626 = !DIImportedEntity(tag: DW_TAG_imported_declaration, scope: !287, entity: !627, line: 200)
!627 = !DIDerivedType(tag: DW_TAG_typedef, name: "lldiv_t", file: !497, line: 80, baseType: !628)
!628 = distinct !DICompositeType(tag: DW_TAG_structure_type, file: !497, line: 76, size: 128, align: 64, elements: !629, identifier: "_ZTS7lldiv_t")
!629 = !{!630, !631}
!630 = !DIDerivedType(tag: DW_TAG_member, name: "quot", scope: !628, file: !497, line: 78, baseType: !296, size: 64, align: 64)
!631 = !DIDerivedType(tag: DW_TAG_member, name: "rem", scope: !628, file: !497, line: 79, baseType: !296, size: 64, align: 64, offset: 64)
!632 = !DIImportedEntity(tag: DW_TAG_imported_declaration, scope: !287, entity: !633, line: 206)
!633 = !DISubprogram(name: "_Exit", scope: !497, file: !497, line: 511, type: !550, isLocal: false, isDefinition: false, flags: DIFlagPrototyped, isOptimized: false)
!634 = !DIImportedEntity(tag: DW_TAG_imported_declaration, scope: !287, entity: !635, line: 210)
!635 = !DISubprogram(name: "llabs", scope: !497, file: !497, line: 726, type: !636, isLocal: false, isDefinition: false, flags: DIFlagPrototyped, isOptimized: false)
!636 = !DISubroutineType(types: !637)
!637 = !{!296, !296}
!638 = !DIImportedEntity(tag: DW_TAG_imported_declaration, scope: !287, entity: !639, line: 216)
!639 = !DISubprogram(name: "lldiv", scope: !497, file: !497, line: 740, type: !640, isLocal: false, isDefinition: false, flags: DIFlagPrototyped, isOptimized: false)
!640 = !DISubroutineType(types: !641)
!641 = !{!627, !296, !296}
!642 = !DIImportedEntity(tag: DW_TAG_imported_declaration, scope: !287, entity: !643, line: 227)
!643 = !DISubprogram(name: "atoll", scope: !497, file: !497, line: 112, type: !644, isLocal: false, isDefinition: false, flags: DIFlagPrototyped, isOptimized: false)
!644 = !DISubroutineType(types: !645)
!645 = !{!296, !100}
!646 = !DIImportedEntity(tag: DW_TAG_imported_declaration, scope: !287, entity: !647, line: 228)
!647 = !DISubprogram(name: "strtoll", scope: !497, file: !497, line: 163, type: !648, isLocal: false, isDefinition: false, flags: DIFlagPrototyped, isOptimized: false)
!648 = !DISubroutineType(types: !649)
!649 = !{!296, !99, !606, !15}
!650 = !DIImportedEntity(tag: DW_TAG_imported_declaration, scope: !287, entity: !651, line: 229)
!651 = !DISubprogram(name: "strtoull", scope: !497, file: !497, line: 168, type: !652, isLocal: false, isDefinition: false, flags: DIFlagPrototyped, isOptimized: false)
!652 = !DISubroutineType(types: !653)
!653 = !{!301, !99, !606, !15}
!654 = !DIImportedEntity(tag: DW_TAG_imported_declaration, scope: !287, entity: !655, line: 231)
!655 = !DISubprogram(name: "strtof", scope: !497, file: !497, line: 123, type: !656, isLocal: false, isDefinition: false, flags: DIFlagPrototyped, isOptimized: false)
!656 = !DISubroutineType(types: !657)
!657 = !{!229, !99, !606}
!658 = !DIImportedEntity(tag: DW_TAG_imported_declaration, scope: !287, entity: !659, line: 232)
!659 = !DISubprogram(name: "strtold", scope: !497, file: !497, line: 126, type: !660, isLocal: false, isDefinition: false, flags: DIFlagPrototyped, isOptimized: false)
!660 = !DISubroutineType(types: !661)
!661 = !{!291, !99, !606}
!662 = !DIImportedEntity(tag: DW_TAG_imported_declaration, scope: !5, entity: !627, line: 240)
!663 = !DIImportedEntity(tag: DW_TAG_imported_declaration, scope: !5, entity: !633, line: 242)
!664 = !DIImportedEntity(tag: DW_TAG_imported_declaration, scope: !5, entity: !635, line: 244)
!665 = !DIImportedEntity(tag: DW_TAG_imported_declaration, scope: !5, entity: !666, line: 245)
!666 = !DISubprogram(name: "div", linkageName: "_ZN9__gnu_cxx3divExx", scope: !287, file: !667, line: 213, type: !640, isLocal: false, isDefinition: false, flags: DIFlagPrototyped, isOptimized: false)
!667 = !DIFile(filename: "/tools/Xilinx/SDK/2018.3/gnu/aarch32/lin/gcc-arm-linux-gnueabi/arm-linux-gnueabihf/include/c++/7.3.1/cstdlib", directory: "/home/steve/Graduate_Research/MLP/build/Pynq-Z1-pynqZ1")
!668 = !DIImportedEntity(tag: DW_TAG_imported_declaration, scope: !5, entity: !639, line: 246)
!669 = !DIImportedEntity(tag: DW_TAG_imported_declaration, scope: !5, entity: !643, line: 248)
!670 = !DIImportedEntity(tag: DW_TAG_imported_declaration, scope: !5, entity: !655, line: 249)
!671 = !DIImportedEntity(tag: DW_TAG_imported_declaration, scope: !5, entity: !647, line: 250)
!672 = !DIImportedEntity(tag: DW_TAG_imported_declaration, scope: !5, entity: !651, line: 251)
!673 = !DIImportedEntity(tag: DW_TAG_imported_declaration, scope: !5, entity: !659, line: 252)
!674 = !DIImportedEntity(tag: DW_TAG_imported_declaration, scope: !5, entity: !675, line: 98)
!675 = !DIDerivedType(tag: DW_TAG_typedef, name: "FILE", file: !676, line: 7, baseType: !57)
!676 = !DIFile(filename: "/tools/Xilinx/SDK/2018.3/gnu/aarch32/lin/gcc-arm-linux-gnueabi/arm-linux-gnueabihf/libc/usr/include/bits/types/FILE.h", directory: "/home/steve/Graduate_Research/MLP/build/Pynq-Z1-pynqZ1")
!677 = !DIImportedEntity(tag: DW_TAG_imported_declaration, scope: !5, entity: !678, line: 99)
!678 = !DIDerivedType(tag: DW_TAG_typedef, name: "fpos_t", file: !679, line: 78, baseType: !680)
!679 = !DIFile(filename: "/tools/Xilinx/SDK/2018.3/gnu/aarch32/lin/gcc-arm-linux-gnueabi/arm-linux-gnueabihf/libc/usr/include/stdio.h", directory: "/home/steve/Graduate_Research/MLP/build/Pynq-Z1-pynqZ1")
!680 = !DIDerivedType(tag: DW_TAG_typedef, name: "_G_fpos_t", file: !681, line: 26, baseType: !682)
!681 = !DIFile(filename: "/tools/Xilinx/SDK/2018.3/gnu/aarch32/lin/gcc-arm-linux-gnueabi/arm-linux-gnueabihf/libc/usr/include/_G_config.h", directory: "/home/steve/Graduate_Research/MLP/build/Pynq-Z1-pynqZ1")
!682 = !DICompositeType(tag: DW_TAG_structure_type, file: !681, line: 22, size: 96, align: 32, flags: DIFlagFwdDecl, identifier: "_ZTS9_G_fpos_t")
!683 = !DIImportedEntity(tag: DW_TAG_imported_declaration, scope: !5, entity: !684, line: 101)
!684 = !DISubprogram(name: "clearerr", scope: !679, file: !679, line: 757, type: !685, isLocal: false, isDefinition: false, flags: DIFlagPrototyped, isOptimized: false)
!685 = !DISubroutineType(types: !686)
!686 = !{null, !687}
!687 = !DIDerivedType(tag: DW_TAG_pointer_type, baseType: !675, size: 32, align: 32)
!688 = !DIImportedEntity(tag: DW_TAG_imported_declaration, scope: !5, entity: !689, line: 102)
!689 = !DISubprogram(name: "fclose", scope: !679, file: !679, line: 199, type: !690, isLocal: false, isDefinition: false, flags: DIFlagPrototyped, isOptimized: false)
!690 = !DISubroutineType(types: !691)
!691 = !{!15, !687}
!692 = !DIImportedEntity(tag: DW_TAG_imported_declaration, scope: !5, entity: !693, line: 103)
!693 = !DISubprogram(name: "feof", scope: !679, file: !679, line: 759, type: !690, isLocal: false, isDefinition: false, flags: DIFlagPrototyped, isOptimized: false)
!694 = !DIImportedEntity(tag: DW_TAG_imported_declaration, scope: !5, entity: !695, line: 104)
!695 = !DISubprogram(name: "ferror", scope: !679, file: !679, line: 761, type: !690, isLocal: false, isDefinition: false, flags: DIFlagPrototyped, isOptimized: false)
!696 = !DIImportedEntity(tag: DW_TAG_imported_declaration, scope: !5, entity: !697, line: 105)
!697 = !DISubprogram(name: "fflush", scope: !679, file: !679, line: 204, type: !690, isLocal: false, isDefinition: false, flags: DIFlagPrototyped, isOptimized: false)
!698 = !DIImportedEntity(tag: DW_TAG_imported_declaration, scope: !5, entity: !699, line: 106)
!699 = !DISubprogram(name: "fgetc", scope: !679, file: !679, line: 477, type: !690, isLocal: false, isDefinition: false, flags: DIFlagPrototyped, isOptimized: false)
!700 = !DIImportedEntity(tag: DW_TAG_imported_declaration, scope: !5, entity: !701, line: 107)
!701 = !DISubprogram(name: "fgetpos", scope: !679, file: !679, line: 731, type: !702, isLocal: false, isDefinition: false, flags: DIFlagPrototyped, isOptimized: false)
!702 = !DISubroutineType(types: !703)
!703 = !{!15, !704, !705}
!704 = !DIDerivedType(tag: DW_TAG_restrict_type, baseType: !687)
!705 = !DIDerivedType(tag: DW_TAG_restrict_type, baseType: !706)
!706 = !DIDerivedType(tag: DW_TAG_pointer_type, baseType: !678, size: 32, align: 32)
!707 = !DIImportedEntity(tag: DW_TAG_imported_declaration, scope: !5, entity: !708, line: 108)
!708 = !DISubprogram(name: "fgets", scope: !679, file: !679, line: 564, type: !709, isLocal: false, isDefinition: false, flags: DIFlagPrototyped, isOptimized: false)
!709 = !DISubroutineType(types: !710)
!710 = !{!171, !170, !15, !704}
!711 = !DIImportedEntity(tag: DW_TAG_imported_declaration, scope: !5, entity: !712, line: 109)
!712 = !DISubprogram(name: "fopen", scope: !679, file: !679, line: 232, type: !713, isLocal: false, isDefinition: false, flags: DIFlagPrototyped, isOptimized: false)
!713 = !DISubroutineType(types: !714)
!714 = !{!687, !99, !99}
!715 = !DIImportedEntity(tag: DW_TAG_imported_declaration, scope: !5, entity: !716, line: 110)
!716 = !DISubprogram(name: "fprintf", scope: !679, file: !679, line: 312, type: !717, isLocal: false, isDefinition: false, flags: DIFlagPrototyped, isOptimized: false)
!717 = !DISubroutineType(types: !718)
!718 = !{!15, !704, !99, null}
!719 = !DIImportedEntity(tag: DW_TAG_imported_declaration, scope: !5, entity: !720, line: 111)
!720 = !DISubprogram(name: "fputc", scope: !679, file: !679, line: 517, type: !721, isLocal: false, isDefinition: false, flags: DIFlagPrototyped, isOptimized: false)
!721 = !DISubroutineType(types: !722)
!722 = !{!15, !15, !687}
!723 = !DIImportedEntity(tag: DW_TAG_imported_declaration, scope: !5, entity: !724, line: 112)
!724 = !DISubprogram(name: "fputs", scope: !679, file: !679, line: 626, type: !725, isLocal: false, isDefinition: false, flags: DIFlagPrototyped, isOptimized: false)
!725 = !DISubroutineType(types: !726)
!726 = !{!15, !99, !704}
!727 = !DIImportedEntity(tag: DW_TAG_imported_declaration, scope: !5, entity: !728, line: 113)
!728 = !DISubprogram(name: "fread", scope: !679, file: !679, line: 646, type: !729, isLocal: false, isDefinition: false, flags: DIFlagPrototyped, isOptimized: false)
!729 = !DISubroutineType(types: !730)
!730 = !{!97, !731, !97, !97, !704}
!731 = !DIDerivedType(tag: DW_TAG_restrict_type, baseType: !149)
!732 = !DIImportedEntity(tag: DW_TAG_imported_declaration, scope: !5, entity: !733, line: 114)
!733 = !DISubprogram(name: "freopen", scope: !679, file: !679, line: 238, type: !734, isLocal: false, isDefinition: false, flags: DIFlagPrototyped, isOptimized: false)
!734 = !DISubroutineType(types: !735)
!735 = !{!687, !99, !99, !704}
!736 = !DIImportedEntity(tag: DW_TAG_imported_declaration, scope: !5, entity: !737, line: 115)
!737 = !DISubprogram(name: "fscanf", scope: !679, file: !679, line: 377, type: !717, isLocal: false, isDefinition: false, flags: DIFlagPrototyped, isOptimized: false)
!738 = !DIImportedEntity(tag: DW_TAG_imported_declaration, scope: !5, entity: !739, line: 116)
!739 = !DISubprogram(name: "fseek", scope: !679, file: !679, line: 684, type: !740, isLocal: false, isDefinition: false, flags: DIFlagPrototyped, isOptimized: false)
!740 = !DISubroutineType(types: !741)
!741 = !{!15, !687, !238, !15}
!742 = !DIImportedEntity(tag: DW_TAG_imported_declaration, scope: !5, entity: !743, line: 117)
!743 = !DISubprogram(name: "fsetpos", scope: !679, file: !679, line: 736, type: !744, isLocal: false, isDefinition: false, flags: DIFlagPrototyped, isOptimized: false)
!744 = !DISubroutineType(types: !745)
!745 = !{!15, !687, !746}
!746 = !DIDerivedType(tag: DW_TAG_pointer_type, baseType: !747, size: 32, align: 32)
!747 = !DIDerivedType(tag: DW_TAG_const_type, baseType: !678)
!748 = !DIImportedEntity(tag: DW_TAG_imported_declaration, scope: !5, entity: !749, line: 118)
!749 = !DISubprogram(name: "ftell", scope: !679, file: !679, line: 689, type: !750, isLocal: false, isDefinition: false, flags: DIFlagPrototyped, isOptimized: false)
!750 = !DISubroutineType(types: !751)
!751 = !{!238, !687}
!752 = !DIImportedEntity(tag: DW_TAG_imported_declaration, scope: !5, entity: !753, line: 119)
!753 = !DISubprogram(name: "fwrite", scope: !679, file: !679, line: 652, type: !754, isLocal: false, isDefinition: false, flags: DIFlagPrototyped, isOptimized: false)
!754 = !DISubroutineType(types: !755)
!755 = !{!97, !756, !97, !97, !704}
!756 = !DIDerivedType(tag: DW_TAG_restrict_type, baseType: !534)
!757 = !DIImportedEntity(tag: DW_TAG_imported_declaration, scope: !5, entity: !758, line: 120)
!758 = !DISubprogram(name: "getc", scope: !679, file: !679, line: 478, type: !690, isLocal: false, isDefinition: false, flags: DIFlagPrototyped, isOptimized: false)
!759 = !DIImportedEntity(tag: DW_TAG_imported_declaration, scope: !5, entity: !760, line: 121)
!760 = !DISubprogram(name: "getchar", scope: !679, file: !679, line: 484, type: !592, isLocal: false, isDefinition: false, flags: DIFlagPrototyped, isOptimized: false)
!761 = !DIImportedEntity(tag: DW_TAG_imported_declaration, scope: !5, entity: !762, line: 124)
!762 = !DISubprogram(name: "gets", scope: !679, file: !679, line: 577, type: !763, isLocal: false, isDefinition: false, flags: DIFlagPrototyped, isOptimized: false)
!763 = !DISubroutineType(types: !764)
!764 = !{!171, !171}
!765 = !DIImportedEntity(tag: DW_TAG_imported_declaration, scope: !5, entity: !766, line: 126)
!766 = !DISubprogram(name: "perror", scope: !679, file: !679, line: 775, type: !767, isLocal: false, isDefinition: false, flags: DIFlagPrototyped, isOptimized: false)
!767 = !DISubroutineType(types: !768)
!768 = !{null, !100}
!769 = !DIImportedEntity(tag: DW_TAG_imported_declaration, scope: !5, entity: !770, line: 127)
!770 = !DISubprogram(name: "printf", scope: !679, file: !679, line: 318, type: !771, isLocal: false, isDefinition: false, flags: DIFlagPrototyped, isOptimized: false)
!771 = !DISubroutineType(types: !772)
!772 = !{!15, !99, null}
!773 = !DIImportedEntity(tag: DW_TAG_imported_declaration, scope: !5, entity: !774, line: 128)
!774 = !DISubprogram(name: "putc", scope: !679, file: !679, line: 518, type: !721, isLocal: false, isDefinition: false, flags: DIFlagPrototyped, isOptimized: false)
!775 = !DIImportedEntity(tag: DW_TAG_imported_declaration, scope: !5, entity: !776, line: 129)
!776 = !DISubprogram(name: "putchar", scope: !679, file: !679, line: 524, type: !463, isLocal: false, isDefinition: false, flags: DIFlagPrototyped, isOptimized: false)
!777 = !DIImportedEntity(tag: DW_TAG_imported_declaration, scope: !5, entity: !778, line: 130)
!778 = !DISubprogram(name: "puts", scope: !679, file: !679, line: 632, type: !524, isLocal: false, isDefinition: false, flags: DIFlagPrototyped, isOptimized: false)
!779 = !DIImportedEntity(tag: DW_TAG_imported_declaration, scope: !5, entity: !780, line: 131)
!780 = !DISubprogram(name: "remove", scope: !679, file: !679, line: 144, type: !524, isLocal: false, isDefinition: false, flags: DIFlagPrototyped, isOptimized: false)
!781 = !DIImportedEntity(tag: DW_TAG_imported_declaration, scope: !5, entity: !782, line: 132)
!782 = !DISubprogram(name: "rename", scope: !679, file: !679, line: 146, type: !783, isLocal: false, isDefinition: false, flags: DIFlagPrototyped, isOptimized: false)
!783 = !DISubroutineType(types: !784)
!784 = !{!15, !100, !100}
!785 = !DIImportedEntity(tag: DW_TAG_imported_declaration, scope: !5, entity: !786, line: 133)
!786 = !DISubprogram(name: "rewind", scope: !679, file: !679, line: 694, type: !685, isLocal: false, isDefinition: false, flags: DIFlagPrototyped, isOptimized: false)
!787 = !DIImportedEntity(tag: DW_TAG_imported_declaration, scope: !5, entity: !788, line: 134)
!788 = !DISubprogram(name: "scanf", scope: !679, file: !679, line: 383, type: !771, isLocal: false, isDefinition: false, flags: DIFlagPrototyped, isOptimized: false)
!789 = !DIImportedEntity(tag: DW_TAG_imported_declaration, scope: !5, entity: !790, line: 135)
!790 = !DISubprogram(name: "setbuf", scope: !679, file: !679, line: 290, type: !791, isLocal: false, isDefinition: false, flags: DIFlagPrototyped, isOptimized: false)
!791 = !DISubroutineType(types: !792)
!792 = !{null, !704, !170}
!793 = !DIImportedEntity(tag: DW_TAG_imported_declaration, scope: !5, entity: !794, line: 136)
!794 = !DISubprogram(name: "setvbuf", scope: !679, file: !679, line: 294, type: !795, isLocal: false, isDefinition: false, flags: DIFlagPrototyped, isOptimized: false)
!795 = !DISubroutineType(types: !796)
!796 = !{!15, !704, !170, !15, !97}
!797 = !DIImportedEntity(tag: DW_TAG_imported_declaration, scope: !5, entity: !798, line: 137)
!798 = !DISubprogram(name: "sprintf", scope: !679, file: !679, line: 320, type: !799, isLocal: false, isDefinition: false, flags: DIFlagPrototyped, isOptimized: false)
!799 = !DISubroutineType(types: !800)
!800 = !{!15, !170, !99, null}
!801 = !DIImportedEntity(tag: DW_TAG_imported_declaration, scope: !5, entity: !802, line: 138)
!802 = !DISubprogram(name: "sscanf", scope: !679, file: !679, line: 385, type: !803, isLocal: false, isDefinition: false, flags: DIFlagPrototyped, isOptimized: false)
!803 = !DISubroutineType(types: !804)
!804 = !{!15, !99, !99, null}
!805 = !DIImportedEntity(tag: DW_TAG_imported_declaration, scope: !5, entity: !806, line: 139)
!806 = !DISubprogram(name: "tmpfile", scope: !679, file: !679, line: 159, type: !807, isLocal: false, isDefinition: false, flags: DIFlagPrototyped, isOptimized: false)
!807 = !DISubroutineType(types: !808)
!808 = !{!687}
!809 = !DIImportedEntity(tag: DW_TAG_imported_declaration, scope: !5, entity: !810, line: 141)
!810 = !DISubprogram(name: "tmpnam", scope: !679, file: !679, line: 173, type: !763, isLocal: false, isDefinition: false, flags: DIFlagPrototyped, isOptimized: false)
!811 = !DIImportedEntity(tag: DW_TAG_imported_declaration, scope: !5, entity: !812, line: 143)
!812 = !DISubprogram(name: "ungetc", scope: !679, file: !679, line: 639, type: !721, isLocal: false, isDefinition: false, flags: DIFlagPrototyped, isOptimized: false)
!813 = !DIImportedEntity(tag: DW_TAG_imported_declaration, scope: !5, entity: !814, line: 144)
!814 = !DISubprogram(name: "vfprintf", scope: !679, file: !679, line: 327, type: !815, isLocal: false, isDefinition: false, flags: DIFlagPrototyped, isOptimized: false)
!815 = !DISubroutineType(types: !816)
!816 = !{!15, !704, !99, !142}
!817 = !DIImportedEntity(tag: DW_TAG_imported_declaration, scope: !5, entity: !818, line: 145)
!818 = !DISubprogram(name: "vprintf", scope: !679, file: !679, line: 333, type: !819, isLocal: false, isDefinition: false, flags: DIFlagPrototyped, isOptimized: false)
!819 = !DISubroutineType(types: !820)
!820 = !{!15, !99, !142}
!821 = !DIImportedEntity(tag: DW_TAG_imported_declaration, scope: !5, entity: !822, line: 146)
!822 = !DISubprogram(name: "vsprintf", scope: !679, file: !679, line: 335, type: !823, isLocal: false, isDefinition: false, flags: DIFlagPrototyped, isOptimized: false)
!823 = !DISubroutineType(types: !824)
!824 = !{!15, !170, !99, !142}
!825 = !DIImportedEntity(tag: DW_TAG_imported_declaration, scope: !287, entity: !826, line: 175)
!826 = !DISubprogram(name: "snprintf", scope: !679, file: !679, line: 340, type: !827, isLocal: false, isDefinition: false, flags: DIFlagPrototyped, isOptimized: false)
!827 = !DISubroutineType(types: !828)
!828 = !{!15, !170, !97, !99, null}
!829 = !DIImportedEntity(tag: DW_TAG_imported_declaration, scope: !287, entity: !830, line: 176)
!830 = !DISubprogram(name: "vfscanf", scope: !679, file: !679, line: 420, type: !815, isLocal: false, isDefinition: false, flags: DIFlagPrototyped, isOptimized: false)
!831 = !DIImportedEntity(tag: DW_TAG_imported_declaration, scope: !287, entity: !832, line: 177)
!832 = !DISubprogram(name: "vscanf", scope: !679, file: !679, line: 428, type: !819, isLocal: false, isDefinition: false, flags: DIFlagPrototyped, isOptimized: false)
!833 = !DIImportedEntity(tag: DW_TAG_imported_declaration, scope: !287, entity: !834, line: 178)
!834 = !DISubprogram(name: "vsnprintf", scope: !679, file: !679, line: 344, type: !835, isLocal: false, isDefinition: false, flags: DIFlagPrototyped, isOptimized: false)
!835 = !DISubroutineType(types: !836)
!836 = !{!15, !170, !97, !99, !142}
!837 = !DIImportedEntity(tag: DW_TAG_imported_declaration, scope: !287, entity: !838, line: 179)
!838 = !DISubprogram(name: "vsscanf", scope: !679, file: !679, line: 432, type: !839, isLocal: false, isDefinition: false, flags: DIFlagPrototyped, isOptimized: false)
!839 = !DISubroutineType(types: !840)
!840 = !{!15, !99, !99, !142}
!841 = !DIImportedEntity(tag: DW_TAG_imported_declaration, scope: !5, entity: !826, line: 185)
!842 = !DIImportedEntity(tag: DW_TAG_imported_declaration, scope: !5, entity: !830, line: 186)
!843 = !DIImportedEntity(tag: DW_TAG_imported_declaration, scope: !5, entity: !832, line: 187)
!844 = !DIImportedEntity(tag: DW_TAG_imported_declaration, scope: !5, entity: !834, line: 188)
!845 = !DIImportedEntity(tag: DW_TAG_imported_declaration, scope: !5, entity: !838, line: 189)
!846 = !DIImportedEntity(tag: DW_TAG_imported_declaration, scope: !5, entity: !847, line: 82)
!847 = !DIDerivedType(tag: DW_TAG_typedef, name: "wctrans_t", file: !848, line: 48, baseType: !849)
!848 = !DIFile(filename: "/tools/Xilinx/SDK/2018.3/gnu/aarch32/lin/gcc-arm-linux-gnueabi/arm-linux-gnueabihf/libc/usr/include/wctype.h", directory: "/home/steve/Graduate_Research/MLP/build/Pynq-Z1-pynqZ1")
!849 = !DIDerivedType(tag: DW_TAG_pointer_type, baseType: !850, size: 32, align: 32)
!850 = !DIDerivedType(tag: DW_TAG_const_type, baseType: !386)
!851 = !DIImportedEntity(tag: DW_TAG_imported_declaration, scope: !5, entity: !852, line: 83)
!852 = !DIDerivedType(tag: DW_TAG_typedef, name: "wctype_t", file: !853, line: 38, baseType: !243)
!853 = !DIFile(filename: "/tools/Xilinx/SDK/2018.3/gnu/aarch32/lin/gcc-arm-linux-gnueabi/arm-linux-gnueabihf/libc/usr/include/bits/wctype-wchar.h", directory: "/home/steve/Graduate_Research/MLP/build/Pynq-Z1-pynqZ1")
!854 = !DIImportedEntity(tag: DW_TAG_imported_declaration, scope: !5, entity: !43, line: 84)
!855 = !DIImportedEntity(tag: DW_TAG_imported_declaration, scope: !5, entity: !856, line: 86)
!856 = !DISubprogram(name: "iswalnum", scope: !853, file: !853, line: 95, type: !250, isLocal: false, isDefinition: false, flags: DIFlagPrototyped, isOptimized: false)
!857 = !DIImportedEntity(tag: DW_TAG_imported_declaration, scope: !5, entity: !858, line: 87)
!858 = !DISubprogram(name: "iswalpha", scope: !853, file: !853, line: 101, type: !250, isLocal: false, isDefinition: false, flags: DIFlagPrototyped, isOptimized: false)
!859 = !DIImportedEntity(tag: DW_TAG_imported_declaration, scope: !5, entity: !860, line: 89)
!860 = !DISubprogram(name: "iswblank", scope: !853, file: !853, line: 146, type: !250, isLocal: false, isDefinition: false, flags: DIFlagPrototyped, isOptimized: false)
!861 = !DIImportedEntity(tag: DW_TAG_imported_declaration, scope: !5, entity: !862, line: 91)
!862 = !DISubprogram(name: "iswcntrl", scope: !853, file: !853, line: 104, type: !250, isLocal: false, isDefinition: false, flags: DIFlagPrototyped, isOptimized: false)
!863 = !DIImportedEntity(tag: DW_TAG_imported_declaration, scope: !5, entity: !864, line: 92)
!864 = !DISubprogram(name: "iswctype", scope: !853, file: !853, line: 159, type: !865, isLocal: false, isDefinition: false, flags: DIFlagPrototyped, isOptimized: false)
!865 = !DISubroutineType(types: !866)
!866 = !{!15, !43, !852}
!867 = !DIImportedEntity(tag: DW_TAG_imported_declaration, scope: !5, entity: !868, line: 93)
!868 = !DISubprogram(name: "iswdigit", scope: !853, file: !853, line: 108, type: !250, isLocal: false, isDefinition: false, flags: DIFlagPrototyped, isOptimized: false)
!869 = !DIImportedEntity(tag: DW_TAG_imported_declaration, scope: !5, entity: !870, line: 94)
!870 = !DISubprogram(name: "iswgraph", scope: !853, file: !853, line: 112, type: !250, isLocal: false, isDefinition: false, flags: DIFlagPrototyped, isOptimized: false)
!871 = !DIImportedEntity(tag: DW_TAG_imported_declaration, scope: !5, entity: !872, line: 95)
!872 = !DISubprogram(name: "iswlower", scope: !853, file: !853, line: 117, type: !250, isLocal: false, isDefinition: false, flags: DIFlagPrototyped, isOptimized: false)
!873 = !DIImportedEntity(tag: DW_TAG_imported_declaration, scope: !5, entity: !874, line: 96)
!874 = !DISubprogram(name: "iswprint", scope: !853, file: !853, line: 120, type: !250, isLocal: false, isDefinition: false, flags: DIFlagPrototyped, isOptimized: false)
!875 = !DIImportedEntity(tag: DW_TAG_imported_declaration, scope: !5, entity: !876, line: 97)
!876 = !DISubprogram(name: "iswpunct", scope: !853, file: !853, line: 125, type: !250, isLocal: false, isDefinition: false, flags: DIFlagPrototyped, isOptimized: false)
!877 = !DIImportedEntity(tag: DW_TAG_imported_declaration, scope: !5, entity: !878, line: 98)
!878 = !DISubprogram(name: "iswspace", scope: !853, file: !853, line: 130, type: !250, isLocal: false, isDefinition: false, flags: DIFlagPrototyped, isOptimized: false)
!879 = !DIImportedEntity(tag: DW_TAG_imported_declaration, scope: !5, entity: !880, line: 99)
!880 = !DISubprogram(name: "iswupper", scope: !853, file: !853, line: 135, type: !250, isLocal: false, isDefinition: false, flags: DIFlagPrototyped, isOptimized: false)
!881 = !DIImportedEntity(tag: DW_TAG_imported_declaration, scope: !5, entity: !882, line: 100)
!882 = !DISubprogram(name: "iswxdigit", scope: !853, file: !853, line: 140, type: !250, isLocal: false, isDefinition: false, flags: DIFlagPrototyped, isOptimized: false)
!883 = !DIImportedEntity(tag: DW_TAG_imported_declaration, scope: !5, entity: !884, line: 101)
!884 = !DISubprogram(name: "towctrans", scope: !848, file: !848, line: 55, type: !885, isLocal: false, isDefinition: false, flags: DIFlagPrototyped, isOptimized: false)
!885 = !DISubroutineType(types: !886)
!886 = !{!43, !43, !847}
!887 = !DIImportedEntity(tag: DW_TAG_imported_declaration, scope: !5, entity: !888, line: 102)
!888 = !DISubprogram(name: "towlower", scope: !853, file: !853, line: 166, type: !889, isLocal: false, isDefinition: false, flags: DIFlagPrototyped, isOptimized: false)
!889 = !DISubroutineType(types: !890)
!890 = !{!43, !43}
!891 = !DIImportedEntity(tag: DW_TAG_imported_declaration, scope: !5, entity: !892, line: 103)
!892 = !DISubprogram(name: "towupper", scope: !853, file: !853, line: 169, type: !889, isLocal: false, isDefinition: false, flags: DIFlagPrototyped, isOptimized: false)
!893 = !DIImportedEntity(tag: DW_TAG_imported_declaration, scope: !5, entity: !894, line: 104)
!894 = !DISubprogram(name: "wctrans", scope: !848, file: !848, line: 52, type: !895, isLocal: false, isDefinition: false, flags: DIFlagPrototyped, isOptimized: false)
!895 = !DISubroutineType(types: !896)
!896 = !{!847, !100}
!897 = !DIImportedEntity(tag: DW_TAG_imported_declaration, scope: !5, entity: !898, line: 105)
!898 = !DISubprogram(name: "wctype", scope: !853, file: !853, line: 155, type: !899, isLocal: false, isDefinition: false, flags: DIFlagPrototyped, isOptimized: false)
!899 = !DISubroutineType(types: !900)
!900 = !{!852, !100}
!901 = !DIImportedEntity(tag: DW_TAG_imported_declaration, scope: !5, entity: !902, line: 75)
!902 = !DISubprogram(name: "memchr", scope: !903, file: !903, line: 90, type: !904, isLocal: false, isDefinition: false, flags: DIFlagPrototyped, isOptimized: false)
!903 = !DIFile(filename: "/tools/Xilinx/SDK/2018.3/gnu/aarch32/lin/gcc-arm-linux-gnueabi/arm-linux-gnueabihf/libc/usr/include/string.h", directory: "/home/steve/Graduate_Research/MLP/build/Pynq-Z1-pynqZ1")
!904 = !DISubroutineType(types: !905)
!905 = !{!149, !534, !15, !97}
!906 = !DIImportedEntity(tag: DW_TAG_imported_declaration, scope: !5, entity: !907, line: 76)
!907 = !DISubprogram(name: "memcmp", scope: !903, file: !903, line: 63, type: !908, isLocal: false, isDefinition: false, flags: DIFlagPrototyped, isOptimized: false)
!908 = !DISubroutineType(types: !909)
!909 = !{!15, !534, !534, !97}
!910 = !DIImportedEntity(tag: DW_TAG_imported_declaration, scope: !5, entity: !911, line: 77)
!911 = !DISubprogram(name: "memcpy", scope: !903, file: !903, line: 42, type: !912, isLocal: false, isDefinition: false, flags: DIFlagPrototyped, isOptimized: false)
!912 = !DISubroutineType(types: !913)
!913 = !{!149, !731, !756, !97}
!914 = !DIImportedEntity(tag: DW_TAG_imported_declaration, scope: !5, entity: !915, line: 78)
!915 = !DISubprogram(name: "memmove", scope: !903, file: !903, line: 46, type: !916, isLocal: false, isDefinition: false, flags: DIFlagPrototyped, isOptimized: false)
!916 = !DISubroutineType(types: !917)
!917 = !{!149, !149, !534, !97}
!918 = !DIImportedEntity(tag: DW_TAG_imported_declaration, scope: !5, entity: !919, line: 79)
!919 = !DISubprogram(name: "memset", scope: !903, file: !903, line: 60, type: !920, isLocal: false, isDefinition: false, flags: DIFlagPrototyped, isOptimized: false)
!920 = !DISubroutineType(types: !921)
!921 = !{!149, !149, !15, !97}
!922 = !DIImportedEntity(tag: DW_TAG_imported_declaration, scope: !5, entity: !923, line: 80)
!923 = !DISubprogram(name: "strcat", scope: !903, file: !903, line: 129, type: !924, isLocal: false, isDefinition: false, flags: DIFlagPrototyped, isOptimized: false)
!924 = !DISubroutineType(types: !925)
!925 = !{!171, !170, !99}
!926 = !DIImportedEntity(tag: DW_TAG_imported_declaration, scope: !5, entity: !927, line: 81)
!927 = !DISubprogram(name: "strcmp", scope: !903, file: !903, line: 136, type: !783, isLocal: false, isDefinition: false, flags: DIFlagPrototyped, isOptimized: false)
!928 = !DIImportedEntity(tag: DW_TAG_imported_declaration, scope: !5, entity: !929, line: 82)
!929 = !DISubprogram(name: "strcoll", scope: !903, file: !903, line: 143, type: !783, isLocal: false, isDefinition: false, flags: DIFlagPrototyped, isOptimized: false)
!930 = !DIImportedEntity(tag: DW_TAG_imported_declaration, scope: !5, entity: !931, line: 83)
!931 = !DISubprogram(name: "strcpy", scope: !903, file: !903, line: 121, type: !924, isLocal: false, isDefinition: false, flags: DIFlagPrototyped, isOptimized: false)
!932 = !DIImportedEntity(tag: DW_TAG_imported_declaration, scope: !5, entity: !933, line: 84)
!933 = !DISubprogram(name: "strcspn", scope: !903, file: !903, line: 272, type: !934, isLocal: false, isDefinition: false, flags: DIFlagPrototyped, isOptimized: false)
!934 = !DISubroutineType(types: !935)
!935 = !{!97, !100, !100}
!936 = !DIImportedEntity(tag: DW_TAG_imported_declaration, scope: !5, entity: !937, line: 85)
!937 = !DISubprogram(name: "strerror", scope: !903, file: !903, line: 396, type: !938, isLocal: false, isDefinition: false, flags: DIFlagPrototyped, isOptimized: false)
!938 = !DISubroutineType(types: !939)
!939 = !{!171, !15}
!940 = !DIImportedEntity(tag: DW_TAG_imported_declaration, scope: !5, entity: !941, line: 86)
!941 = !DISubprogram(name: "strlen", scope: !903, file: !903, line: 384, type: !942, isLocal: false, isDefinition: false, flags: DIFlagPrototyped, isOptimized: false)
!942 = !DISubroutineType(types: !943)
!943 = !{!97, !100}
!944 = !DIImportedEntity(tag: DW_TAG_imported_declaration, scope: !5, entity: !945, line: 87)
!945 = !DISubprogram(name: "strncat", scope: !903, file: !903, line: 132, type: !946, isLocal: false, isDefinition: false, flags: DIFlagPrototyped, isOptimized: false)
!946 = !DISubroutineType(types: !947)
!947 = !{!171, !170, !99, !97}
!948 = !DIImportedEntity(tag: DW_TAG_imported_declaration, scope: !5, entity: !949, line: 88)
!949 = !DISubprogram(name: "strncmp", scope: !903, file: !903, line: 139, type: !950, isLocal: false, isDefinition: false, flags: DIFlagPrototyped, isOptimized: false)
!950 = !DISubroutineType(types: !951)
!951 = !{!15, !100, !100, !97}
!952 = !DIImportedEntity(tag: DW_TAG_imported_declaration, scope: !5, entity: !953, line: 89)
!953 = !DISubprogram(name: "strncpy", scope: !903, file: !903, line: 124, type: !946, isLocal: false, isDefinition: false, flags: DIFlagPrototyped, isOptimized: false)
!954 = !DIImportedEntity(tag: DW_TAG_imported_declaration, scope: !5, entity: !955, line: 90)
!955 = !DISubprogram(name: "strspn", scope: !903, file: !903, line: 276, type: !934, isLocal: false, isDefinition: false, flags: DIFlagPrototyped, isOptimized: false)
!956 = !DIImportedEntity(tag: DW_TAG_imported_declaration, scope: !5, entity: !957, line: 91)
!957 = !DISubprogram(name: "strtok", scope: !903, file: !903, line: 335, type: !924, isLocal: false, isDefinition: false, flags: DIFlagPrototyped, isOptimized: false)
!958 = !DIImportedEntity(tag: DW_TAG_imported_declaration, scope: !5, entity: !959, line: 92)
!959 = !DISubprogram(name: "strxfrm", scope: !903, file: !903, line: 146, type: !960, isLocal: false, isDefinition: false, flags: DIFlagPrototyped, isOptimized: false)
!960 = !DISubroutineType(types: !961)
!961 = !{!97, !170, !99, !97}
!962 = !DIImportedEntity(tag: DW_TAG_imported_declaration, scope: !5, entity: !963, line: 93)
!963 = !DISubprogram(name: "strchr", scope: !903, file: !903, line: 225, type: !964, isLocal: false, isDefinition: false, flags: DIFlagPrototyped, isOptimized: false)
!964 = !DISubroutineType(types: !965)
!965 = !{!171, !100, !15}
!966 = !DIImportedEntity(tag: DW_TAG_imported_declaration, scope: !5, entity: !967, line: 94)
!967 = !DISubprogram(name: "strpbrk", scope: !903, file: !903, line: 302, type: !968, isLocal: false, isDefinition: false, flags: DIFlagPrototyped, isOptimized: false)
!968 = !DISubroutineType(types: !969)
!969 = !{!171, !100, !100}
!970 = !DIImportedEntity(tag: DW_TAG_imported_declaration, scope: !5, entity: !971, line: 95)
!971 = !DISubprogram(name: "strrchr", scope: !903, file: !903, line: 252, type: !964, isLocal: false, isDefinition: false, flags: DIFlagPrototyped, isOptimized: false)
!972 = !DIImportedEntity(tag: DW_TAG_imported_declaration, scope: !5, entity: !973, line: 96)
!973 = !DISubprogram(name: "strstr", scope: !903, file: !903, line: 329, type: !968, isLocal: false, isDefinition: false, flags: DIFlagPrototyped, isOptimized: false)
!974 = !{i32 2, !"Dwarf Version", i32 4}
!975 = !{i32 2, !"Debug Info Version", i32 3}
!976 = !{i32 1, !"wchar_size", i32 4}
!977 = !{i32 1, !"min_enum_size", i32 4}
!978 = !{i32 1, !"PIC Level", i32 2}
!979 = !{!"clang version 3.9.0 (tags/RELEASE_390/final)"}
!980 = distinct !DISubprogram(name: "__cxx_global_var_init", scope: !7, file: !7, line: 74, type: !509, isLocal: true, isDefinition: true, scopeLine: 74, flags: DIFlagPrototyped, isOptimized: false, unit: !0, variables: !2)
!981 = !DILocation(line: 74, column: 25, scope: !980)
!982 = !DILocation(line: 74, column: 25, scope: !983)
!983 = !DILexicalBlockFile(scope: !980, file: !7, discriminator: 1)
!984 = !{!"Init"}
!985 = !{!"void."}
!986 = !{!"/tools/Xilinx/SDK/2018.3/gnu/aarch32/lin/gcc-arm-linux-gnueabi/arm-linux-gnueabihf/include/c++/7.3.1/bits/ios_base.h"}
!987 = !{!"~Init"}
!988 = distinct !DISubprogram(name: "fullyConnected", linkageName: "_Z14fullyConnectedPhPaS0_S_ii", scope: !989, file: !989, line: 48, type: !990, isLocal: false, isDefinition: true, scopeLine: 49, flags: DIFlagPrototyped, isOptimized: false, unit: !0, variables: !2)
!989 = !DIFile(filename: "/home/steve/Graduate_Research/MLP/src/mlp-util.hpp", directory: "/home/steve/Graduate_Research/MLP/build/Pynq-Z1-pynqZ1")
!990 = !DISubroutineType(types: !991)
!991 = !{null, !992, !995, !995, !992, !997, !997}
!992 = !DIDerivedType(tag: DW_TAG_pointer_type, baseType: !993, size: 32, align: 32)
!993 = !DIDerivedType(tag: DW_TAG_typedef, name: "dImage_", file: !994, line: 19, baseType: !413)
!994 = !DIFile(filename: "/home/steve/Graduate_Research/MLP/inc/mlp_config.h", directory: "/home/steve/Graduate_Research/MLP/build/Pynq-Z1-pynqZ1")
!995 = !DIDerivedType(tag: DW_TAG_pointer_type, baseType: !996, size: 32, align: 32)
!996 = !DIDerivedType(tag: DW_TAG_typedef, name: "dType_", file: !994, line: 18, baseType: !375)
!997 = !DIDerivedType(tag: DW_TAG_typedef, name: "dType_Reg", file: !994, line: 20, baseType: !385)
!998 = !{!"fullyConnected"}
!999 = !{!"void.dImage_ *.1.dType_ [78400].1.dType_ *.1.dImage_ *.1.dType_Reg.0.dType_Reg.0"}
!1000 = !{!"/home/steve/Graduate_Research/MLP/src/mlp-util.hpp"}
!1001 = !DILocalVariable(name: "input", arg: 1, scope: !988, file: !989, line: 48, type: !992)
!1002 = !DIExpression()
!1003 = !DILocation(line: 48, column: 30, scope: !988)
!1004 = !DILocalVariable(name: "weights", arg: 2, scope: !988, file: !989, line: 48, type: !995)
!1005 = !DILocation(line: 48, column: 44, scope: !988)
!1006 = !DILocalVariable(name: "bias", arg: 3, scope: !988, file: !989, line: 48, type: !995)
!1007 = !DILocation(line: 48, column: 71, scope: !988)
!1008 = !DILocalVariable(name: "output", arg: 4, scope: !988, file: !989, line: 48, type: !992)
!1009 = !DILocation(line: 48, column: 86, scope: !988)
!1010 = !DILocalVariable(name: "row", arg: 5, scope: !988, file: !989, line: 48, type: !997)
!1011 = !DILocation(line: 48, column: 104, scope: !988)
!1012 = !DILocalVariable(name: "col", arg: 6, scope: !988, file: !989, line: 48, type: !997)
!1013 = !DILocation(line: 48, column: 119, scope: !988)
!1014 = !DILocalVariable(name: "sum", scope: !988, file: !989, line: 50, type: !997)
!1015 = !DILocation(line: 50, column: 15, scope: !988)
!1016 = !DILocalVariable(name: "tmp_in", scope: !988, file: !989, line: 51, type: !15)
!1017 = !DILocation(line: 51, column: 9, scope: !988)
!1018 = !DILocalVariable(name: "tmp_weight", scope: !988, file: !989, line: 52, type: !15)
!1019 = !DILocation(line: 52, column: 9, scope: !988)
!1020 = !DILocalVariable(name: "i", scope: !1021, file: !989, line: 53, type: !15)
!1021 = distinct !DILexicalBlock(scope: !988, file: !989, line: 53, column: 5)
!1022 = !DILocation(line: 53, column: 14, scope: !1021)
!1023 = !DILocation(line: 53, column: 10, scope: !1021)
!1024 = !DILocation(line: 53, column: 21, scope: !1025)
!1025 = !DILexicalBlockFile(scope: !1026, file: !989, discriminator: 1)
!1026 = distinct !DILexicalBlock(scope: !1021, file: !989, line: 53, column: 5)
!1027 = !DILocation(line: 53, column: 25, scope: !1025)
!1028 = !DILocation(line: 53, column: 23, scope: !1025)
!1029 = !DILocation(line: 53, column: 5, scope: !1025)
!1030 = !DILocation(line: 55, column: 13, scope: !1031)
!1031 = distinct !DILexicalBlock(scope: !1026, file: !989, line: 54, column: 5)
!1032 = !DILocalVariable(name: "j", scope: !1033, file: !989, line: 56, type: !15)
!1033 = distinct !DILexicalBlock(scope: !1031, file: !989, line: 56, column: 9)
!1034 = !DILocation(line: 56, column: 18, scope: !1033)
!1035 = !DILocation(line: 56, column: 14, scope: !1033)
!1036 = !DILocation(line: 56, column: 25, scope: !1037)
!1037 = !DILexicalBlockFile(scope: !1038, file: !989, discriminator: 1)
!1038 = distinct !DILexicalBlock(scope: !1033, file: !989, line: 56, column: 9)
!1039 = !DILocation(line: 56, column: 29, scope: !1037)
!1040 = !DILocation(line: 56, column: 27, scope: !1037)
!1041 = !DILocation(line: 56, column: 9, scope: !1037)
!1042 = !DILocation(line: 58, column: 28, scope: !1043)
!1043 = distinct !DILexicalBlock(scope: !1038, file: !989, line: 57, column: 9)
!1044 = !DILocation(line: 58, column: 22, scope: !1043)
!1045 = !DILocation(line: 58, column: 20, scope: !1043)
!1046 = !DILocation(line: 59, column: 35, scope: !1043)
!1047 = !DILocation(line: 59, column: 39, scope: !1043)
!1048 = !DILocation(line: 59, column: 37, scope: !1043)
!1049 = !DILocation(line: 59, column: 46, scope: !1043)
!1050 = !DILocation(line: 59, column: 44, scope: !1043)
!1051 = !DILocation(line: 59, column: 26, scope: !1043)
!1052 = !DILocation(line: 59, column: 24, scope: !1043)
!1053 = !DILocation(line: 60, column: 26, scope: !1043)
!1054 = !DILocation(line: 60, column: 20, scope: !1043)
!1055 = !DILocation(line: 60, column: 40, scope: !1043)
!1056 = !DILocation(line: 60, column: 44, scope: !1043)
!1057 = !DILocation(line: 60, column: 42, scope: !1043)
!1058 = !DILocation(line: 60, column: 51, scope: !1043)
!1059 = !DILocation(line: 60, column: 49, scope: !1043)
!1060 = !DILocation(line: 60, column: 31, scope: !1043)
!1061 = !DILocation(line: 60, column: 29, scope: !1043)
!1062 = !DILocation(line: 60, column: 17, scope: !1043)
!1063 = !DILocation(line: 61, column: 9, scope: !1043)
!1064 = !DILocation(line: 56, column: 35, scope: !1065)
!1065 = !DILexicalBlockFile(scope: !1038, file: !989, discriminator: 2)
!1066 = !DILocation(line: 56, column: 9, scope: !1065)
!1067 = distinct !{!1067, !1068}
!1068 = !DILocation(line: 56, column: 9, scope: !1031)
!1069 = !DILocation(line: 63, column: 21, scope: !1031)
!1070 = !DILocation(line: 63, column: 16, scope: !1031)
!1071 = !DILocation(line: 63, column: 13, scope: !1031)
!1072 = !DILocation(line: 65, column: 13, scope: !1073)
!1073 = distinct !DILexicalBlock(scope: !1031, file: !989, line: 65, column: 13)
!1074 = !DILocation(line: 65, column: 17, scope: !1073)
!1075 = !DILocation(line: 65, column: 13, scope: !1031)
!1076 = !DILocation(line: 67, column: 17, scope: !1077)
!1077 = distinct !DILexicalBlock(scope: !1073, file: !989, line: 66, column: 9)
!1078 = !DILocation(line: 68, column: 9, scope: !1077)
!1079 = !DILocation(line: 69, column: 13, scope: !1080)
!1080 = distinct !DILexicalBlock(scope: !1031, file: !989, line: 69, column: 13)
!1081 = !DILocation(line: 69, column: 17, scope: !1080)
!1082 = !DILocation(line: 69, column: 13, scope: !1031)
!1083 = !DILocation(line: 71, column: 17, scope: !1084)
!1084 = distinct !DILexicalBlock(scope: !1080, file: !989, line: 70, column: 9)
!1085 = !DILocation(line: 72, column: 9, scope: !1084)
!1086 = !DILocation(line: 73, column: 21, scope: !1031)
!1087 = !DILocation(line: 73, column: 16, scope: !1031)
!1088 = !DILocation(line: 73, column: 9, scope: !1031)
!1089 = !DILocation(line: 73, column: 19, scope: !1031)
!1090 = !DILocation(line: 74, column: 5, scope: !1031)
!1091 = !DILocation(line: 53, column: 31, scope: !1092)
!1092 = !DILexicalBlockFile(scope: !1026, file: !989, discriminator: 2)
!1093 = !DILocation(line: 53, column: 5, scope: !1092)
!1094 = distinct !{!1094, !1095}
!1095 = !DILocation(line: 53, column: 5, scope: !988)
!1096 = !DILocation(line: 75, column: 1, scope: !988)
!1097 = distinct !DISubprogram(name: "MLP", linkageName: "_Z3MLPPhPaS0_S0_S0_S_", scope: !1, file: !1, line: 4, type: !1098, isLocal: false, isDefinition: true, scopeLine: 11, flags: DIFlagPrototyped, isOptimized: false, unit: !0, variables: !2)
!1098 = !DISubroutineType(types: !1099)
!1099 = !{null, !992, !995, !995, !995, !995, !992}
!1100 = !{!"MLP"}
!1101 = !{!"void.dImage_ *.1.dType_ *.1.dType_ *.1.dType_ *.1.dType_ *.1.dImage_ *.1"}
!1102 = !{!"/home/steve/Graduate_Research/MLP/inc/mlp.h"}
!1103 = !{!"image,28*28*1,,PHYSICAL_CONTIGUOUS,AXIDMA_SIMPLE,,0,copy,,,,,SEQUENTIAL l1_b,100,,PHYSICAL_CONTIGUOUS,AXIDMA_SIMPLE,,0,copy,,,,,SEQUENTIAL l1_w,100*784,,PHYSICAL_CONTIGUOUS,AXIDMA_SIMPLE,,0,copy,,,,,SEQUENTIAL l2_b,10,,PHYSICAL_CONTIGUOUS,AXIDMA_SIMPLE,,0,copy,,,,,SEQUENTIAL l2_w,10*100,,PHYSICAL_CONTIGUOUS,AXIDMA_SIMPLE,,0,copy,,,,,SEQUENTIAL out,10,,PHYSICAL_CONTIGUOUS,AXIDMA_SIMPLE,,0,copy,,,,,SEQUENTIAL "}
!1104 = !DILocalVariable(name: "image", arg: 1, scope: !1097, file: !1, line: 5, type: !992)
!1105 = !DILocation(line: 5, column: 14, scope: !1097)
!1106 = !DILocalVariable(name: "l1_w", arg: 2, scope: !1097, file: !1, line: 6, type: !995)
!1107 = !DILocation(line: 6, column: 13, scope: !1097)
!1108 = !DILocalVariable(name: "l1_b", arg: 3, scope: !1097, file: !1, line: 7, type: !995)
!1109 = !DILocation(line: 7, column: 13, scope: !1097)
!1110 = !DILocalVariable(name: "l2_w", arg: 4, scope: !1097, file: !1, line: 8, type: !995)
!1111 = !DILocation(line: 8, column: 13, scope: !1097)
!1112 = !DILocalVariable(name: "l2_b", arg: 5, scope: !1097, file: !1, line: 9, type: !995)
!1113 = !DILocation(line: 9, column: 13, scope: !1097)
!1114 = !DILocalVariable(name: "out", arg: 6, scope: !1097, file: !1, line: 10, type: !992)
!1115 = !DILocation(line: 10, column: 14, scope: !1097)
!1116 = !DILocalVariable(name: "image_buf", scope: !1097, file: !1, line: 13, type: !1117)
!1117 = !DICompositeType(tag: DW_TAG_array_type, baseType: !993, size: 6272, align: 8, elements: !1118)
!1118 = !{!1119}
!1119 = !DISubrange(count: 784)
!1120 = !DILocation(line: 13, column: 13, scope: !1097)
!1121 = !DILocalVariable(name: "l1_w_buf", scope: !1097, file: !1, line: 16, type: !1122)
!1122 = !DICompositeType(tag: DW_TAG_array_type, baseType: !996, size: 627200, align: 8, elements: !1123)
!1123 = !{!1124}
!1124 = !DISubrange(count: 78400)
!1125 = !DILocation(line: 16, column: 12, scope: !1097)
!1126 = !DILocalVariable(name: "l1_b_buf", scope: !1097, file: !1, line: 19, type: !1127)
!1127 = !DICompositeType(tag: DW_TAG_array_type, baseType: !996, size: 800, align: 8, elements: !1128)
!1128 = !{!1129}
!1129 = !DISubrange(count: 100)
!1130 = !DILocation(line: 19, column: 12, scope: !1097)
!1131 = !DILocalVariable(name: "l1_output_buf", scope: !1097, file: !1, line: 22, type: !1132)
!1132 = !DICompositeType(tag: DW_TAG_array_type, baseType: !993, size: 800, align: 8, elements: !1128)
!1133 = !DILocation(line: 22, column: 13, scope: !1097)
!1134 = !DILocalVariable(name: "l2_w_buf", scope: !1097, file: !1, line: 25, type: !1135)
!1135 = !DICompositeType(tag: DW_TAG_array_type, baseType: !996, size: 8000, align: 8, elements: !1136)
!1136 = !{!1137}
!1137 = !DISubrange(count: 1000)
!1138 = !DILocation(line: 25, column: 12, scope: !1097)
!1139 = !DILocalVariable(name: "l2_b_buf", scope: !1097, file: !1, line: 28, type: !1140)
!1140 = !DICompositeType(tag: DW_TAG_array_type, baseType: !996, size: 80, align: 8, elements: !1141)
!1141 = !{!1142}
!1142 = !DISubrange(count: 10)
!1143 = !DILocation(line: 28, column: 12, scope: !1097)
!1144 = !DILocalVariable(name: "out_buf", scope: !1097, file: !1, line: 31, type: !1145)
!1145 = !DICompositeType(tag: DW_TAG_array_type, baseType: !993, size: 80, align: 8, elements: !1141)
!1146 = !DILocation(line: 31, column: 13, scope: !1097)
!1147 = !DILocation(line: 34, column: 25, scope: !1097)
!1148 = !DILocation(line: 34, column: 32, scope: !1097)
!1149 = !DILocation(line: 34, column: 5, scope: !1097)
!1150 = !DILocation(line: 35, column: 19, scope: !1097)
!1151 = !DILocation(line: 35, column: 25, scope: !1097)
!1152 = !DILocation(line: 35, column: 5, scope: !1097)
!1153 = !DILocation(line: 36, column: 19, scope: !1097)
!1154 = !DILocation(line: 36, column: 25, scope: !1097)
!1155 = !DILocation(line: 36, column: 5, scope: !1097)
!1156 = !DILocation(line: 37, column: 19, scope: !1097)
!1157 = !DILocation(line: 37, column: 25, scope: !1097)
!1158 = !DILocation(line: 37, column: 5, scope: !1097)
!1159 = !DILocation(line: 38, column: 19, scope: !1097)
!1160 = !DILocation(line: 38, column: 25, scope: !1097)
!1161 = !DILocation(line: 38, column: 5, scope: !1097)
!1162 = !DILocation(line: 45, column: 20, scope: !1097)
!1163 = !DILocation(line: 45, column: 31, scope: !1097)
!1164 = !DILocation(line: 45, column: 41, scope: !1097)
!1165 = !DILocation(line: 45, column: 51, scope: !1097)
!1166 = !DILocation(line: 45, column: 5, scope: !1097)
!1167 = !DILocation(line: 46, column: 20, scope: !1097)
!1168 = !DILocation(line: 46, column: 35, scope: !1097)
!1169 = !DILocation(line: 46, column: 45, scope: !1097)
!1170 = !DILocation(line: 46, column: 55, scope: !1097)
!1171 = !DILocation(line: 46, column: 5, scope: !1097)
!1172 = !DILocation(line: 58, column: 20, scope: !1097)
!1173 = !DILocation(line: 58, column: 25, scope: !1097)
!1174 = !DILocation(line: 58, column: 5, scope: !1097)
!1175 = !DILocation(line: 59, column: 1, scope: !1097)
!1176 = distinct !DISubprogram(name: "read_image_from_ddr", linkageName: "_Z19read_image_from_ddrPhS_i", scope: !989, file: !989, line: 6, type: !1177, isLocal: false, isDefinition: true, scopeLine: 7, flags: DIFlagPrototyped, isOptimized: false, unit: !0, variables: !2)
!1177 = !DISubroutineType(types: !1178)
!1178 = !{null, !992, !992, !997}
!1179 = !{!"read_image_from_ddr"}
!1180 = !{!"void.dImage_ *.1.dImage_ [784].1.dType_Reg.0"}
!1181 = !DILocalVariable(name: "input", arg: 1, scope: !1176, file: !989, line: 6, type: !992)
!1182 = !DILocation(line: 6, column: 42, scope: !1176)
!1183 = !DILocalVariable(name: "buffer", arg: 2, scope: !1176, file: !989, line: 6, type: !992)
!1184 = !DILocation(line: 6, column: 57, scope: !1176)
!1185 = !DILocalVariable(name: "size", arg: 3, scope: !1176, file: !989, line: 6, type: !997)
!1186 = !DILocation(line: 6, column: 89, scope: !1176)
!1187 = !DILocalVariable(name: "i", scope: !1188, file: !989, line: 9, type: !15)
!1188 = distinct !DILexicalBlock(scope: !1176, file: !989, line: 9, column: 5)
!1189 = !DILocation(line: 9, column: 14, scope: !1188)
!1190 = !DILocation(line: 9, column: 10, scope: !1188)
!1191 = !DILocation(line: 9, column: 21, scope: !1192)
!1192 = !DILexicalBlockFile(scope: !1193, file: !989, discriminator: 1)
!1193 = distinct !DILexicalBlock(scope: !1188, file: !989, line: 9, column: 5)
!1194 = !DILocation(line: 9, column: 25, scope: !1192)
!1195 = !DILocation(line: 9, column: 23, scope: !1192)
!1196 = !DILocation(line: 9, column: 5, scope: !1192)
!1197 = !DILocation(line: 12, column: 27, scope: !1198)
!1198 = distinct !DILexicalBlock(scope: !1193, file: !989, line: 10, column: 5)
!1199 = !DILocation(line: 12, column: 21, scope: !1198)
!1200 = !DILocation(line: 12, column: 16, scope: !1198)
!1201 = !DILocation(line: 12, column: 9, scope: !1198)
!1202 = !DILocation(line: 12, column: 19, scope: !1198)
!1203 = !DILocation(line: 13, column: 5, scope: !1198)
!1204 = !DILocation(line: 9, column: 32, scope: !1205)
!1205 = !DILexicalBlockFile(scope: !1193, file: !989, discriminator: 2)
!1206 = !DILocation(line: 9, column: 5, scope: !1205)
!1207 = distinct !{!1207, !1208}
!1208 = !DILocation(line: 9, column: 5, scope: !1176)
!1209 = !DILocation(line: 14, column: 1, scope: !1176)
!1210 = distinct !DISubprogram(name: "read_from_ddr", linkageName: "_Z13read_from_ddrPaS_i", scope: !989, file: !989, line: 16, type: !1211, isLocal: false, isDefinition: true, scopeLine: 17, flags: DIFlagPrototyped, isOptimized: false, unit: !0, variables: !2)
!1211 = !DISubroutineType(types: !1212)
!1212 = !{null, !995, !995, !997}
!1213 = !{!"read_from_ddr"}
!1214 = !{!"void.dType_ *.1.dType_ [78400].1.dType_Reg.0"}
!1215 = !DILocalVariable(name: "input", arg: 1, scope: !1210, file: !989, line: 16, type: !995)
!1216 = !DILocation(line: 16, column: 35, scope: !1210)
!1217 = !DILocalVariable(name: "buffer", arg: 2, scope: !1210, file: !989, line: 16, type: !995)
!1218 = !DILocation(line: 16, column: 49, scope: !1210)
!1219 = !DILocalVariable(name: "size", arg: 3, scope: !1210, file: !989, line: 16, type: !997)
!1220 = !DILocation(line: 16, column: 88, scope: !1210)
!1221 = !DILocalVariable(name: "i", scope: !1222, file: !989, line: 19, type: !15)
!1222 = distinct !DILexicalBlock(scope: !1210, file: !989, line: 19, column: 5)
!1223 = !DILocation(line: 19, column: 14, scope: !1222)
!1224 = !DILocation(line: 19, column: 10, scope: !1222)
!1225 = !DILocation(line: 19, column: 21, scope: !1226)
!1226 = !DILexicalBlockFile(scope: !1227, file: !989, discriminator: 1)
!1227 = distinct !DILexicalBlock(scope: !1222, file: !989, line: 19, column: 5)
!1228 = !DILocation(line: 19, column: 25, scope: !1226)
!1229 = !DILocation(line: 19, column: 23, scope: !1226)
!1230 = !DILocation(line: 19, column: 5, scope: !1226)
!1231 = !DILocation(line: 22, column: 27, scope: !1232)
!1232 = distinct !DILexicalBlock(scope: !1227, file: !989, line: 20, column: 5)
!1233 = !DILocation(line: 22, column: 21, scope: !1232)
!1234 = !DILocation(line: 22, column: 16, scope: !1232)
!1235 = !DILocation(line: 22, column: 9, scope: !1232)
!1236 = !DILocation(line: 22, column: 19, scope: !1232)
!1237 = !DILocation(line: 23, column: 5, scope: !1232)
!1238 = !DILocation(line: 19, column: 32, scope: !1239)
!1239 = !DILexicalBlockFile(scope: !1227, file: !989, discriminator: 2)
!1240 = !DILocation(line: 19, column: 5, scope: !1239)
!1241 = distinct !{!1241, !1242}
!1242 = !DILocation(line: 19, column: 5, scope: !1210)
!1243 = !DILocation(line: 24, column: 1, scope: !1210)
!1244 = distinct !DISubprogram(name: "output_results", linkageName: "_Z14output_resultsPhS_", scope: !989, file: !989, line: 26, type: !1245, isLocal: false, isDefinition: true, scopeLine: 27, flags: DIFlagPrototyped, isOptimized: false, unit: !0, variables: !2)
!1245 = !DISubroutineType(types: !1246)
!1246 = !{null, !992, !992}
!1247 = !{!"output_results"}
!1248 = !{!"void.dImage_ *.1.dImage_ [10].1"}
!1249 = !DILocalVariable(name: "out", arg: 1, scope: !1244, file: !989, line: 26, type: !992)
!1250 = !DILocation(line: 26, column: 37, scope: !1244)
!1251 = !DILocalVariable(name: "buffer", arg: 2, scope: !1244, file: !989, line: 26, type: !992)
!1252 = !DILocation(line: 26, column: 50, scope: !1244)
!1253 = !DILocalVariable(name: "i", scope: !1254, file: !989, line: 29, type: !15)
!1254 = distinct !DILexicalBlock(scope: !1244, file: !989, line: 29, column: 5)
!1255 = !DILocation(line: 29, column: 14, scope: !1254)
!1256 = !DILocation(line: 29, column: 10, scope: !1254)
!1257 = !DILocation(line: 29, column: 21, scope: !1258)
!1258 = !DILexicalBlockFile(scope: !1259, file: !989, discriminator: 1)
!1259 = distinct !DILexicalBlock(scope: !1254, file: !989, line: 29, column: 5)
!1260 = !DILocation(line: 29, column: 23, scope: !1258)
!1261 = !DILocation(line: 29, column: 5, scope: !1258)
!1262 = !DILocation(line: 32, column: 25, scope: !1263)
!1263 = distinct !DILexicalBlock(scope: !1259, file: !989, line: 30, column: 5)
!1264 = !DILocation(line: 32, column: 18, scope: !1263)
!1265 = !DILocation(line: 32, column: 13, scope: !1263)
!1266 = !DILocation(line: 32, column: 9, scope: !1263)
!1267 = !DILocation(line: 32, column: 16, scope: !1263)
!1268 = !DILocation(line: 33, column: 5, scope: !1263)
!1269 = !DILocation(line: 29, column: 40, scope: !1270)
!1270 = !DILexicalBlockFile(scope: !1259, file: !989, discriminator: 2)
!1271 = !DILocation(line: 29, column: 5, scope: !1270)
!1272 = distinct !{!1272, !1273}
!1273 = !DILocation(line: 29, column: 5, scope: !1244)
!1274 = !DILocation(line: 34, column: 1, scope: !1244)
!1275 = distinct !DISubprogram(linkageName: "_GLOBAL__sub_I_mlp.cpp", scope: !1, file: !1, type: !1276, isLocal: true, isDefinition: true, flags: DIFlagArtificial, isOptimized: false, unit: !0, variables: !2)
!1276 = !DISubroutineType(types: !2)
!1277 = !DILocation(line: 0, scope: !1275)
